---
triple:          'arm64-apple-darwin'
binary-path:     '/Users/sajidhasan/VSCODE/cfp16'
relocations:
  - { offsetInCU: 0x403E, offset: 0x403E, size: 0x8, addend: 0x0, symName: __ZNSt3__124__put_character_sequenceB8ue170006IcNS_11char_traitsIcEEEERNS_13basic_ostreamIT_T0_EES7_PKS4_m, symObjAddr: 0x1314, symBinAddr: 0x10000307C, symSize: 0x1EC }
  - { offsetInCU: 0x5BB0, offset: 0x5BB0, size: 0x8, addend: 0x0, symName: __ZNSt3__1lsB8ue170006INS_11char_traitsIcEEEERNS_13basic_ostreamIcT_EES6_PKc, symObjAddr: 0x250, symBinAddr: 0x100001FB8, symSize: 0x48 }
  - { offsetInCU: 0x5BF6, offset: 0x5BF6, size: 0x8, addend: 0x0, symName: __ZNSt3__14endlB8ue170006IcNS_11char_traitsIcEEEERNS_13basic_ostreamIT_T0_EES7_, symObjAddr: 0x2C4, symBinAddr: 0x10000202C, symSize: 0x58 }
  - { offsetInCU: 0x5C36, offset: 0x5C36, size: 0x8, addend: 0x0, symName: __ZNSt3__122__make_exception_guardB8ue170006INS_6vectorIiNS_9allocatorIiEEE16__destroy_vectorEEENS_28__exception_guard_exceptionsIT_EES7_, symObjAddr: 0x458, symBinAddr: 0x1000021C0, symSize: 0x40 }
  - { offsetInCU: 0x5C6B, offset: 0x5C6B, size: 0x8, addend: 0x0, symName: __ZNSt3__119__allocate_at_leastB8ue170006INS_9allocatorIiEEEENS_19__allocation_resultINS_16allocator_traitsIT_E7pointerEEERS5_m, symObjAddr: 0x844, symBinAddr: 0x1000025AC, symSize: 0x40 }
  - { offsetInCU: 0x5CAE, offset: 0x5CAE, size: 0x8, addend: 0x0, symName: __ZNSt3__13minB8ue170006ImEERKT_S3_S3_, symObjAddr: 0x980, symBinAddr: 0x1000026E8, symSize: 0x2C }
  - { offsetInCU: 0x5EF2, offset: 0x5EF2, size: 0x8, addend: 0x0, symName: __ZNSt3__13minB8ue170006ImNS_6__lessIvvEEEERKT_S5_S5_T0_, symObjAddr: 0xA18, symBinAddr: 0x100002780, symSize: 0x54 }
  - { offsetInCU: 0x5F91, offset: 0x5F91, size: 0x8, addend: 0x0, symName: __ZNSt3__120__throw_length_errorB8ue170006EPKc, symObjAddr: 0xAF4, symBinAddr: 0x10000285C, symSize: 0x64 }
  - { offsetInCU: 0x5FBB, offset: 0x5FBB, size: 0x8, addend: 0x0, symName: __ZNSt3__117__libcpp_allocateB8ue170006Emm, symObjAddr: 0xC64, symBinAddr: 0x1000029CC, symSize: 0x28 }
  - { offsetInCU: 0x5FF8, offset: 0x5FF8, size: 0x8, addend: 0x0, symName: __ZNSt3__121__libcpp_operator_newB8ue170006IJmEEEPvDpT_, symObjAddr: 0xC8C, symBinAddr: 0x1000029F4, symSize: 0x24 }
  - { offsetInCU: 0x6031, offset: 0x6031, size: 0x8, addend: 0x0, symName: __ZNSt3__112__to_addressB8ue170006IiEEPT_S2_, symObjAddr: 0xDA8, symBinAddr: 0x100002B10, symSize: 0x14 }
  - { offsetInCU: 0x6066, offset: 0x6066, size: 0x8, addend: 0x0, symName: __ZNSt3__119__libcpp_deallocateB8ue170006EPvmm, symObjAddr: 0x1258, symBinAddr: 0x100002FC0, symSize: 0x30 }
  - { offsetInCU: 0x60AE, offset: 0x60AE, size: 0x8, addend: 0x0, symName: __ZNSt3__127__do_deallocate_handle_sizeB8ue170006IJEEEvPvmDpT_, symObjAddr: 0x1288, symBinAddr: 0x100002FF0, symSize: 0x28 }
  - { offsetInCU: 0x60EC, offset: 0x60EC, size: 0x8, addend: 0x0, symName: __ZNSt3__124__libcpp_operator_deleteB8ue170006IJPvEEEvDpT_, symObjAddr: 0x12B0, symBinAddr: 0x100003018, symSize: 0x24 }
  - { offsetInCU: 0x6121, offset: 0x6121, size: 0x8, addend: 0x0, symName: __ZNSt3__116__pad_and_outputB8ue170006IcNS_11char_traitsIcEEEENS_19ostreambuf_iteratorIT_T0_EES6_PKS4_S8_S8_RNS_8ios_baseES4_, symObjAddr: 0x1550, symBinAddr: 0x1000032B8, symSize: 0x240 }
  - { offsetInCU: 0x61F0, offset: 0x61F0, size: 0x8, addend: 0x0, symName: __ZNSt3__112__to_addressB8ue170006IKcEEPT_S3_, symObjAddr: 0x1AB8, symBinAddr: 0x100003820, symSize: 0x14 }
  - { offsetInCU: 0x6258, offset: 0x6258, size: 0x8, addend: 0x0, symName: __ZNSt3__19use_facetB8ue170006INS_5ctypeIcEEEERKT_RKNS_6localeE, symObjAddr: 0x1D38, symBinAddr: 0x100003AA0, symSize: 0x2C }
  - { offsetInCU: 0x6725, offset: 0x6725, size: 0x8, addend: 0x0, symName: __ZNSt3__118__constexpr_strlenB8ue170006EPKc, symObjAddr: 0x1DD0, symBinAddr: 0x100003B38, symSize: 0x24 }
  - { offsetInCU: 0x6A1B, offset: 0x6A1B, size: 0x8, addend: 0x0, symName: __ZSt28__throw_bad_array_new_lengthB8ue170006v, symObjAddr: 0xC30, symBinAddr: 0x100002998, symSize: 0x34 }
  - { offsetInCU: 0x916B, offset: 0x916B, size: 0x8, addend: 0x0, symName: _main, symObjAddr: 0x0, symBinAddr: 0x100001D68, symSize: 0x1F8 }
  - { offsetInCU: 0x920B, offset: 0x920B, size: 0x8, addend: 0x0, symName: __ZNSt3__16vectorIiNS_9allocatorIiEEEC1Em, symObjAddr: 0x1F8, symBinAddr: 0x100001F60, symSize: 0x34 }
  - { offsetInCU: 0x9246, offset: 0x9246, size: 0x8, addend: 0x0, symName: __ZNSt3__16vectorIiNS_9allocatorIiEEEixB8ue170006Em, symObjAddr: 0x22C, symBinAddr: 0x100001F94, symSize: 0x24 }
  - { offsetInCU: 0x927D, offset: 0x927D, size: 0x8, addend: 0x0, symName: __ZNSt3__113basic_ostreamIcNS_11char_traitsIcEEElsB8ue170006EPFRS3_S4_E, symObjAddr: 0x298, symBinAddr: 0x100002000, symSize: 0x2C }
  - { offsetInCU: 0x92B1, offset: 0x92B1, size: 0x8, addend: 0x0, symName: __ZNSt3__16vectorIiNS_9allocatorIiEEED1B8ue170006Ev, symObjAddr: 0x31C, symBinAddr: 0x100002084, symSize: 0x2C }
  - { offsetInCU: 0x92DB, offset: 0x92DB, size: 0x8, addend: 0x0, symName: __ZNSt3__16vectorIiNS_9allocatorIiEEEC2Em, symObjAddr: 0x348, symBinAddr: 0x1000020B0, symSize: 0xD4 }
  - { offsetInCU: 0x9335, offset: 0x9335, size: 0x8, addend: 0x0, symName: __ZNSt3__117__compressed_pairIPiNS_9allocatorIiEEEC1B8ue170006IDnNS_18__default_init_tagEEEOT_OT0_, symObjAddr: 0x41C, symBinAddr: 0x100002184, symSize: 0x3C }
  - { offsetInCU: 0x938D, offset: 0x938D, size: 0x8, addend: 0x0, symName: __ZNSt3__16vectorIiNS_9allocatorIiEEE16__destroy_vectorC1B8ue170006ERS3_, symObjAddr: 0x498, symBinAddr: 0x100002200, symSize: 0x34 }
  - { offsetInCU: 0x93C6, offset: 0x93C6, size: 0x8, addend: 0x0, symName: __ZNSt3__16vectorIiNS_9allocatorIiEEE11__vallocateB8ue170006Em, symObjAddr: 0x4CC, symBinAddr: 0x100002234, symSize: 0xAC }
  - { offsetInCU: 0x940A, offset: 0x940A, size: 0x8, addend: 0x0, symName: __ZNSt3__16vectorIiNS_9allocatorIiEEE18__construct_at_endEm, symObjAddr: 0x578, symBinAddr: 0x1000022E0, symSize: 0xC8 }
  - { offsetInCU: 0x947D, offset: 0x947D, size: 0x8, addend: 0x0, symName: __ZNSt3__128__exception_guard_exceptionsINS_6vectorIiNS_9allocatorIiEEE16__destroy_vectorEE10__completeB8ue170006Ev, symObjAddr: 0x640, symBinAddr: 0x1000023A8, symSize: 0x1C }
  - { offsetInCU: 0x94A3, offset: 0x94A3, size: 0x8, addend: 0x0, symName: __ZNSt3__128__exception_guard_exceptionsINS_6vectorIiNS_9allocatorIiEEE16__destroy_vectorEED1B8ue170006Ev, symObjAddr: 0x65C, symBinAddr: 0x1000023C4, symSize: 0x2C }
  - { offsetInCU: 0x94CD, offset: 0x94CD, size: 0x8, addend: 0x0, symName: __ZNSt3__117__compressed_pairIPiNS_9allocatorIiEEEC2B8ue170006IDnNS_18__default_init_tagEEEOT_OT0_, symObjAddr: 0x688, symBinAddr: 0x1000023F0, symSize: 0x40 }
  - { offsetInCU: 0x9525, offset: 0x9525, size: 0x8, addend: 0x0, symName: __ZNSt3__122__compressed_pair_elemIPiLi0ELb0EEC2B8ue170006IDnvEEOT_, symObjAddr: 0x6C8, symBinAddr: 0x100002430, symSize: 0x1C }
  - { offsetInCU: 0x9567, offset: 0x9567, size: 0x8, addend: 0x0, symName: __ZNSt3__122__compressed_pair_elemINS_9allocatorIiEELi1ELb1EEC2B8ue170006ENS_18__default_init_tagE, symObjAddr: 0x6E4, symBinAddr: 0x10000244C, symSize: 0x2C }
  - { offsetInCU: 0x959C, offset: 0x959C, size: 0x8, addend: 0x0, symName: __ZNSt3__19allocatorIiEC2B8ue170006Ev, symObjAddr: 0x710, symBinAddr: 0x100002478, symSize: 0x2C }
  - { offsetInCU: 0x95C6, offset: 0x95C6, size: 0x8, addend: 0x0, symName: __ZNSt3__116__non_trivial_ifILb1ENS_9allocatorIiEEEC2B8ue170006Ev, symObjAddr: 0x73C, symBinAddr: 0x1000024A4, symSize: 0x14 }
  - { offsetInCU: 0x95F0, offset: 0x95F0, size: 0x8, addend: 0x0, symName: __ZNSt3__128__exception_guard_exceptionsINS_6vectorIiNS_9allocatorIiEEE16__destroy_vectorEEC1B8ue170006ES5_, symObjAddr: 0x750, symBinAddr: 0x1000024B8, symSize: 0x34 }
  - { offsetInCU: 0x9628, offset: 0x9628, size: 0x8, addend: 0x0, symName: __ZNSt3__128__exception_guard_exceptionsINS_6vectorIiNS_9allocatorIiEEE16__destroy_vectorEEC2B8ue170006ES5_, symObjAddr: 0x784, symBinAddr: 0x1000024EC, symSize: 0x24 }
  - { offsetInCU: 0x9660, offset: 0x9660, size: 0x8, addend: 0x0, symName: __ZNSt3__16vectorIiNS_9allocatorIiEEE16__destroy_vectorC2B8ue170006ERS3_, symObjAddr: 0x7A8, symBinAddr: 0x100002510, symSize: 0x20 }
  - { offsetInCU: 0x9699, offset: 0x9699, size: 0x8, addend: 0x0, symName: __ZNKSt3__16vectorIiNS_9allocatorIiEEE8max_sizeEv, symObjAddr: 0x7C8, symBinAddr: 0x100002530, symSize: 0x60 }
  - { offsetInCU: 0x96C1, offset: 0x96C1, size: 0x8, addend: 0x0, symName: __ZNKSt3__16vectorIiNS_9allocatorIiEEE20__throw_length_errorB8ue170006Ev, symObjAddr: 0x828, symBinAddr: 0x100002590, symSize: 0x1C }
  - { offsetInCU: 0x96E7, offset: 0x96E7, size: 0x8, addend: 0x0, symName: __ZNSt3__16vectorIiNS_9allocatorIiEEE7__allocB8ue170006Ev, symObjAddr: 0x884, symBinAddr: 0x1000025EC, symSize: 0x28 }
  - { offsetInCU: 0x970D, offset: 0x970D, size: 0x8, addend: 0x0, symName: __ZNSt3__16vectorIiNS_9allocatorIiEEE9__end_capB8ue170006Ev, symObjAddr: 0x8AC, symBinAddr: 0x100002614, symSize: 0x28 }
  - { offsetInCU: 0x9733, offset: 0x9733, size: 0x8, addend: 0x0, symName: __ZNKSt3__16vectorIiNS_9allocatorIiEEE14__annotate_newB8ue170006Em, symObjAddr: 0x8D4, symBinAddr: 0x10000263C, symSize: 0xAC }
  - { offsetInCU: 0x9772, offset: 0x9772, size: 0x8, addend: 0x0, symName: __ZNSt3__116allocator_traitsINS_9allocatorIiEEE8max_sizeB8ue170006IS2_vEEmRKS2_, symObjAddr: 0x9AC, symBinAddr: 0x100002714, symSize: 0x24 }
  - { offsetInCU: 0x97A0, offset: 0x97A0, size: 0x8, addend: 0x0, symName: __ZNKSt3__16vectorIiNS_9allocatorIiEEE7__allocB8ue170006Ev, symObjAddr: 0x9D0, symBinAddr: 0x100002738, symSize: 0x28 }
  - { offsetInCU: 0x97C6, offset: 0x97C6, size: 0x8, addend: 0x0, symName: __ZNSt3__114numeric_limitsIlE3maxB8ue170006Ev, symObjAddr: 0x9F8, symBinAddr: 0x100002760, symSize: 0x14 }
  - { offsetInCU: 0x97EE, offset: 0x97EE, size: 0x8, addend: 0x0, symName: __ZNKSt3__16__lessIvvEclB8ue170006ImmEEbRKT_RKT0_, symObjAddr: 0xA6C, symBinAddr: 0x1000027D4, symSize: 0x34 }
  - { offsetInCU: 0x9842, offset: 0x9842, size: 0x8, addend: 0x0, symName: __ZNKSt3__19allocatorIiE8max_sizeB8ue170006Ev, symObjAddr: 0xAA0, symBinAddr: 0x100002808, symSize: 0x14 }
  - { offsetInCU: 0x9868, offset: 0x9868, size: 0x8, addend: 0x0, symName: __ZNKSt3__117__compressed_pairIPiNS_9allocatorIiEEE6secondB8ue170006Ev, symObjAddr: 0xAB4, symBinAddr: 0x10000281C, symSize: 0x24 }
  - { offsetInCU: 0x988E, offset: 0x988E, size: 0x8, addend: 0x0, symName: __ZNKSt3__122__compressed_pair_elemINS_9allocatorIiEELi1ELb1EE5__getB8ue170006Ev, symObjAddr: 0xAD8, symBinAddr: 0x100002840, symSize: 0x14 }
  - { offsetInCU: 0x98B4, offset: 0x98B4, size: 0x8, addend: 0x0, symName: __ZNSt3__123__libcpp_numeric_limitsIlLb1EE3maxB8ue170006Ev, symObjAddr: 0xAEC, symBinAddr: 0x100002854, symSize: 0x8 }
  - { offsetInCU: 0x98C8, offset: 0x98C8, size: 0x8, addend: 0x0, symName: __ZNSt12length_errorC1B8ue170006EPKc, symObjAddr: 0xB58, symBinAddr: 0x1000028C0, symSize: 0x34 }
  - { offsetInCU: 0x9900, offset: 0x9900, size: 0x8, addend: 0x0, symName: __ZNSt12length_errorC2B8ue170006EPKc, symObjAddr: 0xB8C, symBinAddr: 0x1000028F4, symSize: 0x4C }
  - { offsetInCU: 0x9938, offset: 0x9938, size: 0x8, addend: 0x0, symName: __ZNSt3__19allocatorIiE8allocateB8ue170006Em, symObjAddr: 0xBD8, symBinAddr: 0x100002940, symSize: 0x58 }
  - { offsetInCU: 0x996C, offset: 0x996C, size: 0x8, addend: 0x0, symName: __ZNSt3__117__compressed_pairIPiNS_9allocatorIiEEE6secondB8ue170006Ev, symObjAddr: 0xCB0, symBinAddr: 0x100002A18, symSize: 0x24 }
  - { offsetInCU: 0x9992, offset: 0x9992, size: 0x8, addend: 0x0, symName: __ZNSt3__122__compressed_pair_elemINS_9allocatorIiEELi1ELb1EE5__getB8ue170006Ev, symObjAddr: 0xCD4, symBinAddr: 0x100002A3C, symSize: 0x14 }
  - { offsetInCU: 0x99B8, offset: 0x99B8, size: 0x8, addend: 0x0, symName: __ZNSt3__117__compressed_pairIPiNS_9allocatorIiEEE5firstB8ue170006Ev, symObjAddr: 0xCE8, symBinAddr: 0x100002A50, symSize: 0x24 }
  - { offsetInCU: 0x99DE, offset: 0x99DE, size: 0x8, addend: 0x0, symName: __ZNSt3__122__compressed_pair_elemIPiLi0ELb0EE5__getB8ue170006Ev, symObjAddr: 0xD0C, symBinAddr: 0x100002A74, symSize: 0x14 }
  - { offsetInCU: 0x9A04, offset: 0x9A04, size: 0x8, addend: 0x0, symName: __ZNKSt3__16vectorIiNS_9allocatorIiEEE31__annotate_contiguous_containerB8ue170006EPKvS5_S5_S5_, symObjAddr: 0xD20, symBinAddr: 0x100002A88, symSize: 0x20 }
  - { offsetInCU: 0x9A5A, offset: 0x9A5A, size: 0x8, addend: 0x0, symName: __ZNKSt3__16vectorIiNS_9allocatorIiEEE4dataB8ue170006Ev, symObjAddr: 0xD40, symBinAddr: 0x100002AA8, symSize: 0x28 }
  - { offsetInCU: 0x9A80, offset: 0x9A80, size: 0x8, addend: 0x0, symName: __ZNKSt3__16vectorIiNS_9allocatorIiEEE8capacityB8ue170006Ev, symObjAddr: 0xD68, symBinAddr: 0x100002AD0, symSize: 0x40 }
  - { offsetInCU: 0x9AA6, offset: 0x9AA6, size: 0x8, addend: 0x0, symName: __ZNKSt3__16vectorIiNS_9allocatorIiEEE9__end_capB8ue170006Ev, symObjAddr: 0xDBC, symBinAddr: 0x100002B24, symSize: 0x28 }
  - { offsetInCU: 0x9ACC, offset: 0x9ACC, size: 0x8, addend: 0x0, symName: __ZNKSt3__117__compressed_pairIPiNS_9allocatorIiEEE5firstB8ue170006Ev, symObjAddr: 0xDE4, symBinAddr: 0x100002B4C, symSize: 0x24 }
  - { offsetInCU: 0x9AF2, offset: 0x9AF2, size: 0x8, addend: 0x0, symName: __ZNKSt3__122__compressed_pair_elemIPiLi0ELb0EE5__getB8ue170006Ev, symObjAddr: 0xE08, symBinAddr: 0x100002B70, symSize: 0x14 }
  - { offsetInCU: 0x9B31, offset: 0x9B31, size: 0x8, addend: 0x0, symName: __ZNSt3__16vectorIiNS_9allocatorIiEEE21_ConstructTransactionC1B8ue170006ERS3_m, symObjAddr: 0xE1C, symBinAddr: 0x100002B84, symSize: 0x3C }
  - { offsetInCU: 0x9B79, offset: 0x9B79, size: 0x8, addend: 0x0, symName: __ZNSt3__116allocator_traitsINS_9allocatorIiEEE9constructB8ue170006IiJEvEEvRS2_PT_DpOT0_, symObjAddr: 0xE58, symBinAddr: 0x100002BC0, symSize: 0x2C }
  - { offsetInCU: 0x9BBB, offset: 0x9BBB, size: 0x8, addend: 0x0, symName: __ZNSt3__16vectorIiNS_9allocatorIiEEE21_ConstructTransactionD1B8ue170006Ev, symObjAddr: 0xE84, symBinAddr: 0x100002BEC, symSize: 0x2C }
  - { offsetInCU: 0x9BE5, offset: 0x9BE5, size: 0x8, addend: 0x0, symName: __ZNSt3__16vectorIiNS_9allocatorIiEEE21_ConstructTransactionC2B8ue170006ERS3_m, symObjAddr: 0xEB0, symBinAddr: 0x100002C18, symSize: 0x44 }
  - { offsetInCU: 0x9C2D, offset: 0x9C2D, size: 0x8, addend: 0x0, symName: __ZNSt3__19allocatorIiE9constructB8ue170006IiJEEEvPT_DpOT0_, symObjAddr: 0xEF4, symBinAddr: 0x100002C5C, symSize: 0x1C }
  - { offsetInCU: 0x9C6F, offset: 0x9C6F, size: 0x8, addend: 0x0, symName: __ZNSt3__16vectorIiNS_9allocatorIiEEE21_ConstructTransactionD2B8ue170006Ev, symObjAddr: 0xF10, symBinAddr: 0x100002C78, symSize: 0x20 }
  - { offsetInCU: 0x9C99, offset: 0x9C99, size: 0x8, addend: 0x0, symName: __ZNSt3__128__exception_guard_exceptionsINS_6vectorIiNS_9allocatorIiEEE16__destroy_vectorEED2B8ue170006Ev, symObjAddr: 0xF30, symBinAddr: 0x100002C98, symSize: 0x50 }
  - { offsetInCU: 0x9CC3, offset: 0x9CC3, size: 0x8, addend: 0x0, symName: __ZNSt3__16vectorIiNS_9allocatorIiEEE16__destroy_vectorclB8ue170006Ev, symObjAddr: 0xF80, symBinAddr: 0x100002CE8, symSize: 0x90 }
  - { offsetInCU: 0x9CE9, offset: 0x9CE9, size: 0x8, addend: 0x0, symName: __ZNSt3__16vectorIiNS_9allocatorIiEEE7__clearB8ue170006Ev, symObjAddr: 0x1010, symBinAddr: 0x100002D78, symSize: 0x28 }
  - { offsetInCU: 0x9D0F, offset: 0x9D0F, size: 0x8, addend: 0x0, symName: __ZNKSt3__16vectorIiNS_9allocatorIiEEE17__annotate_deleteB8ue170006Ev, symObjAddr: 0x1038, symBinAddr: 0x100002DA0, symSize: 0xB8 }
  - { offsetInCU: 0x9D35, offset: 0x9D35, size: 0x8, addend: 0x0, symName: __ZNSt3__116allocator_traitsINS_9allocatorIiEEE10deallocateB8ue170006ERS2_Pim, symObjAddr: 0x10F0, symBinAddr: 0x100002E58, symSize: 0x34 }
  - { offsetInCU: 0x9D77, offset: 0x9D77, size: 0x8, addend: 0x0, symName: __ZNSt3__16vectorIiNS_9allocatorIiEEE22__base_destruct_at_endB8ue170006EPi, symObjAddr: 0x1124, symBinAddr: 0x100002E8C, symSize: 0x8C }
  - { offsetInCU: 0x9DBB, offset: 0x9DBB, size: 0x8, addend: 0x0, symName: __ZNSt3__116allocator_traitsINS_9allocatorIiEEE7destroyB8ue170006IivEEvRS2_PT_, symObjAddr: 0x11B0, symBinAddr: 0x100002F18, symSize: 0x2C }
  - { offsetInCU: 0x9DF8, offset: 0x9DF8, size: 0x8, addend: 0x0, symName: __ZNSt3__19allocatorIiE7destroyB8ue170006EPi, symObjAddr: 0x11DC, symBinAddr: 0x100002F44, symSize: 0x14 }
  - { offsetInCU: 0x9E2C, offset: 0x9E2C, size: 0x8, addend: 0x0, symName: __ZNKSt3__16vectorIiNS_9allocatorIiEEE4sizeB8ue170006Ev, symObjAddr: 0x11F0, symBinAddr: 0x100002F58, symSize: 0x28 }
  - { offsetInCU: 0x9E52, offset: 0x9E52, size: 0x8, addend: 0x0, symName: __ZNSt3__19allocatorIiE10deallocateB8ue170006EPim, symObjAddr: 0x1218, symBinAddr: 0x100002F80, symSize: 0x40 }
  - { offsetInCU: 0x9E94, offset: 0x9E94, size: 0x8, addend: 0x0, symName: __ZNSt3__16vectorIiNS_9allocatorIiEEED2B8ue170006Ev, symObjAddr: 0x12D4, symBinAddr: 0x10000303C, symSize: 0x40 }
  - { offsetInCU: 0x9EBE, offset: 0x9EBE, size: 0x8, addend: 0x0, symName: __ZNSt3__111char_traitsIcE6lengthB8ue170006EPKc, symObjAddr: 0x1500, symBinAddr: 0x100003268, symSize: 0x34 }
  - { offsetInCU: 0x9EFF, offset: 0x9EFF, size: 0x8, addend: 0x0, symName: __ZNKSt3__113basic_ostreamIcNS_11char_traitsIcEEE6sentrycvbB8ue170006Ev, symObjAddr: 0x1534, symBinAddr: 0x10000329C, symSize: 0x1C }
  - { offsetInCU: 0x9F25, offset: 0x9F25, size: 0x8, addend: 0x0, symName: __ZNSt3__119ostreambuf_iteratorIcNS_11char_traitsIcEEEC1B8ue170006ERNS_13basic_ostreamIcS2_EE, symObjAddr: 0x1790, symBinAddr: 0x1000034F8, symSize: 0x34 }
  - { offsetInCU: 0x9F5D, offset: 0x9F5D, size: 0x8, addend: 0x0, symName: __ZNKSt3__18ios_base5flagsB8ue170006Ev, symObjAddr: 0x17C4, symBinAddr: 0x10000352C, symSize: 0x18 }
  - { offsetInCU: 0x9F85, offset: 0x9F85, size: 0x8, addend: 0x0, symName: __ZNKSt3__19basic_iosIcNS_11char_traitsIcEEE4fillB8ue170006Ev, symObjAddr: 0x17DC, symBinAddr: 0x100003544, symSize: 0x64 }
  - { offsetInCU: 0x9FAD, offset: 0x9FAD, size: 0x8, addend: 0x0, symName: __ZNKSt3__119ostreambuf_iteratorIcNS_11char_traitsIcEEE6failedB8ue170006Ev, symObjAddr: 0x1840, symBinAddr: 0x1000035A8, symSize: 0x24 }
  - { offsetInCU: 0x9FD3, offset: 0x9FD3, size: 0x8, addend: 0x0, symName: __ZNSt3__19basic_iosIcNS_11char_traitsIcEEE8setstateB8ue170006Ej, symObjAddr: 0x1864, symBinAddr: 0x1000035CC, symSize: 0x2C }
  - { offsetInCU: 0xA008, offset: 0xA008, size: 0x8, addend: 0x0, symName: __ZNKSt3__18ios_base5widthB8ue170006Ev, symObjAddr: 0x1890, symBinAddr: 0x1000035F8, symSize: 0x18 }
  - { offsetInCU: 0xA030, offset: 0xA030, size: 0x8, addend: 0x0, symName: __ZNSt3__115basic_streambufIcNS_11char_traitsIcEEE5sputnB8ue170006EPKcl, symObjAddr: 0x18A8, symBinAddr: 0x100003610, symSize: 0x3C }
  - { offsetInCU: 0xA072, offset: 0xA072, size: 0x8, addend: 0x0, symName: __ZNSt3__112basic_stringIcNS_11char_traitsIcEENS_9allocatorIcEEEC1B8ue170006Emc, symObjAddr: 0x18E4, symBinAddr: 0x10000364C, symSize: 0x3C }
  - { offsetInCU: 0xA0BA, offset: 0xA0BA, size: 0x8, addend: 0x0, symName: __ZNKSt3__112basic_stringIcNS_11char_traitsIcEENS_9allocatorIcEEE4dataB8ue170006Ev, symObjAddr: 0x1920, symBinAddr: 0x100003688, symSize: 0x28 }
  - { offsetInCU: 0xA0E0, offset: 0xA0E0, size: 0x8, addend: 0x0, symName: __ZNSt3__18ios_base5widthB8ue170006El, symObjAddr: 0x1948, symBinAddr: 0x1000036B0, symSize: 0x2C }
  - { offsetInCU: 0xA126, offset: 0xA126, size: 0x8, addend: 0x0, symName: __ZNSt3__112basic_stringIcNS_11char_traitsIcEENS_9allocatorIcEEEC2B8ue170006Emc, symObjAddr: 0x1974, symBinAddr: 0x1000036DC, symSize: 0x4C }
  - { offsetInCU: 0xA16E, offset: 0xA16E, size: 0x8, addend: 0x0, symName: __ZNSt3__117__compressed_pairINS_12basic_stringIcNS_11char_traitsIcEENS_9allocatorIcEEE5__repES5_EC1B8ue170006INS_18__default_init_tagESA_EEOT_OT0_, symObjAddr: 0x19C0, symBinAddr: 0x100003728, symSize: 0x3C }
  - { offsetInCU: 0xA1C6, offset: 0xA1C6, size: 0x8, addend: 0x0, symName: __ZNSt3__117__compressed_pairINS_12basic_stringIcNS_11char_traitsIcEENS_9allocatorIcEEE5__repES5_EC2B8ue170006INS_18__default_init_tagESA_EEOT_OT0_, symObjAddr: 0x19FC, symBinAddr: 0x100003764, symSize: 0x3C }
  - { offsetInCU: 0xA21E, offset: 0xA21E, size: 0x8, addend: 0x0, symName: __ZNSt3__122__compressed_pair_elemINS_12basic_stringIcNS_11char_traitsIcEENS_9allocatorIcEEE5__repELi0ELb0EEC2B8ue170006ENS_18__default_init_tagE, symObjAddr: 0x1A38, symBinAddr: 0x1000037A0, symSize: 0x14 }
  - { offsetInCU: 0xA253, offset: 0xA253, size: 0x8, addend: 0x0, symName: __ZNSt3__122__compressed_pair_elemINS_9allocatorIcEELi1ELb1EEC2B8ue170006ENS_18__default_init_tagE, symObjAddr: 0x1A4C, symBinAddr: 0x1000037B4, symSize: 0x2C }
  - { offsetInCU: 0xA288, offset: 0xA288, size: 0x8, addend: 0x0, symName: __ZNSt3__19allocatorIcEC2B8ue170006Ev, symObjAddr: 0x1A78, symBinAddr: 0x1000037E0, symSize: 0x2C }
  - { offsetInCU: 0xA2B2, offset: 0xA2B2, size: 0x8, addend: 0x0, symName: __ZNSt3__116__non_trivial_ifILb1ENS_9allocatorIcEEEC2B8ue170006Ev, symObjAddr: 0x1AA4, symBinAddr: 0x10000380C, symSize: 0x14 }
  - { offsetInCU: 0xA2DC, offset: 0xA2DC, size: 0x8, addend: 0x0, symName: __ZNKSt3__112basic_stringIcNS_11char_traitsIcEENS_9allocatorIcEEE13__get_pointerB8ue170006Ev, symObjAddr: 0x1ACC, symBinAddr: 0x100003834, symSize: 0x54 }
  - { offsetInCU: 0xA302, offset: 0xA302, size: 0x8, addend: 0x0, symName: __ZNKSt3__112basic_stringIcNS_11char_traitsIcEENS_9allocatorIcEEE9__is_longB8ue170006Ev, symObjAddr: 0x1B20, symBinAddr: 0x100003888, symSize: 0x38 }
  - { offsetInCU: 0xA328, offset: 0xA328, size: 0x8, addend: 0x0, symName: __ZNKSt3__112basic_stringIcNS_11char_traitsIcEENS_9allocatorIcEEE18__get_long_pointerB8ue170006Ev, symObjAddr: 0x1B58, symBinAddr: 0x1000038C0, symSize: 0x28 }
  - { offsetInCU: 0xA34E, offset: 0xA34E, size: 0x8, addend: 0x0, symName: __ZNKSt3__112basic_stringIcNS_11char_traitsIcEENS_9allocatorIcEEE19__get_short_pointerB8ue170006Ev, symObjAddr: 0x1B80, symBinAddr: 0x1000038E8, symSize: 0x28 }
  - { offsetInCU: 0xA374, offset: 0xA374, size: 0x8, addend: 0x0, symName: __ZNKSt3__117__compressed_pairINS_12basic_stringIcNS_11char_traitsIcEENS_9allocatorIcEEE5__repES5_E5firstB8ue170006Ev, symObjAddr: 0x1BA8, symBinAddr: 0x100003910, symSize: 0x24 }
  - { offsetInCU: 0xA39A, offset: 0xA39A, size: 0x8, addend: 0x0, symName: __ZNKSt3__122__compressed_pair_elemINS_12basic_stringIcNS_11char_traitsIcEENS_9allocatorIcEEE5__repELi0ELb0EE5__getB8ue170006Ev, symObjAddr: 0x1BCC, symBinAddr: 0x100003934, symSize: 0x14 }
  - { offsetInCU: 0xA3C0, offset: 0xA3C0, size: 0x8, addend: 0x0, symName: __ZNSt3__114pointer_traitsIPKcE10pointer_toB8ue170006ERS1_, symObjAddr: 0x1BE0, symBinAddr: 0x100003948, symSize: 0x14 }
  - { offsetInCU: 0xA3E3, offset: 0xA3E3, size: 0x8, addend: 0x0, symName: __ZNSt3__119ostreambuf_iteratorIcNS_11char_traitsIcEEEC2B8ue170006ERNS_13basic_ostreamIcS2_EE, symObjAddr: 0x1BF4, symBinAddr: 0x10000395C, symSize: 0x54 }
  - { offsetInCU: 0xA41B, offset: 0xA41B, size: 0x8, addend: 0x0, symName: __ZNKSt3__19basic_iosIcNS_11char_traitsIcEEE5rdbufB8ue170006Ev, symObjAddr: 0x1C48, symBinAddr: 0x1000039B0, symSize: 0x24 }
  - { offsetInCU: 0xA443, offset: 0xA443, size: 0x8, addend: 0x0, symName: __ZNKSt3__18ios_base5rdbufB8ue170006Ev, symObjAddr: 0x1C6C, symBinAddr: 0x1000039D4, symSize: 0x18 }
  - { offsetInCU: 0xA469, offset: 0xA469, size: 0x8, addend: 0x0, symName: __ZNSt3__111char_traitsIcE11eq_int_typeB8ue170006Eii, symObjAddr: 0x1C84, symBinAddr: 0x1000039EC, symSize: 0x28 }
  - { offsetInCU: 0xA49C, offset: 0xA49C, size: 0x8, addend: 0x0, symName: __ZNSt3__111char_traitsIcE3eofB8ue170006Ev, symObjAddr: 0x1CAC, symBinAddr: 0x100003A14, symSize: 0x8 }
  - { offsetInCU: 0xA4B0, offset: 0xA4B0, size: 0x8, addend: 0x0, symName: __ZNKSt3__19basic_iosIcNS_11char_traitsIcEEE5widenB8ue170006Ec, symObjAddr: 0x1CB4, symBinAddr: 0x100003A1C, symSize: 0x84 }
  - { offsetInCU: 0xA51E, offset: 0xA51E, size: 0x8, addend: 0x0, symName: __ZNKSt3__15ctypeIcE5widenB8ue170006Ec, symObjAddr: 0x1D64, symBinAddr: 0x100003ACC, symSize: 0x38 }
  - { offsetInCU: 0xA553, offset: 0xA553, size: 0x8, addend: 0x0, symName: __ZNSt3__18ios_base8setstateB8ue170006Ej, symObjAddr: 0x1D9C, symBinAddr: 0x100003B04, symSize: 0x34 }
...
