---
triple:          'arm64-apple-darwin'
binary-path:     '/Users/sajidhasan/VSCODE/cfp13'
relocations:
  - { offsetInCU: 0x453C, offset: 0x453C, size: 0x8, addend: 0x0, symName: __ZNSt3__1rsB8ue170006IcNS_11char_traitsIcEENS_9allocatorIcEEEERNS_13basic_istreamIT_T0_EES9_RNS_12basic_stringIS6_S7_T1_EE, symObjAddr: 0x12C, symBinAddr: 0x100002F84, symSize: 0x31C }
  - { offsetInCU: 0x4CAF, offset: 0x4CAF, size: 0x8, addend: 0x0, symName: __ZNSt3__14endlB8ue170006IcNS_11char_traitsIcEEEERNS_13basic_ostreamIT_T0_EES7_, symObjAddr: 0x4A4, symBinAddr: 0x1000032FC, symSize: 0x58 }
  - { offsetInCU: 0x5486, offset: 0x5486, size: 0x8, addend: 0x0, symName: __ZNSt3__19use_facetB8ue170006INS_5ctypeIcEEEERKT_RKNS_6localeE, symObjAddr: 0x82C, symBinAddr: 0x100003684, symSize: 0x2C }
  - { offsetInCU: 0x807E, offset: 0x807E, size: 0x8, addend: 0x0, symName: _main, symObjAddr: 0x0, symBinAddr: 0x100002E58, symSize: 0x100 }
  - { offsetInCU: 0x80D6, offset: 0x80D6, size: 0x8, addend: 0x0, symName: __ZNSt3__112basic_stringIcNS_11char_traitsIcEENS_9allocatorIcEEEC1B8ue170006Ev, symObjAddr: 0x100, symBinAddr: 0x100002F58, symSize: 0x2C }
  - { offsetInCU: 0x80FE, offset: 0x80FE, size: 0x8, addend: 0x0, symName: __ZNSt3__112basic_stringIcNS_11char_traitsIcEENS_9allocatorIcEEEixB8ue170006Em, symObjAddr: 0x448, symBinAddr: 0x1000032A0, symSize: 0x30 }
  - { offsetInCU: 0x81A7, offset: 0x81A7, size: 0x8, addend: 0x0, symName: __ZNSt3__113basic_ostreamIcNS_11char_traitsIcEEElsB8ue170006EPFRS3_S4_E, symObjAddr: 0x478, symBinAddr: 0x1000032D0, symSize: 0x2C }
  - { offsetInCU: 0x81D9, offset: 0x81D9, size: 0x8, addend: 0x0, symName: __ZNSt3__112basic_stringIcNS_11char_traitsIcEENS_9allocatorIcEEEC2B8ue170006Ev, symObjAddr: 0x4FC, symBinAddr: 0x100003354, symSize: 0x48 }
  - { offsetInCU: 0x8206, offset: 0x8206, size: 0x8, addend: 0x0, symName: __ZNSt3__117__compressed_pairINS_12basic_stringIcNS_11char_traitsIcEENS_9allocatorIcEEE5__repES5_EC1B8ue170006INS_18__default_init_tagESA_EEOT_OT0_, symObjAddr: 0x544, symBinAddr: 0x10000339C, symSize: 0x3C }
  - { offsetInCU: 0x825C, offset: 0x825C, size: 0x8, addend: 0x0, symName: __ZNSt3__112basic_stringIcNS_11char_traitsIcEENS_9allocatorIcEEE14__default_initB8ue170006Ev, symObjAddr: 0x58C, symBinAddr: 0x1000033E4, symSize: 0x40 }
  - { offsetInCU: 0x8280, offset: 0x8280, size: 0x8, addend: 0x0, symName: __ZNSt3__117__compressed_pairINS_12basic_stringIcNS_11char_traitsIcEENS_9allocatorIcEEE5__repES5_EC2B8ue170006INS_18__default_init_tagESA_EEOT_OT0_, symObjAddr: 0x5CC, symBinAddr: 0x100003424, symSize: 0x3C }
  - { offsetInCU: 0x82D6, offset: 0x82D6, size: 0x8, addend: 0x0, symName: __ZNSt3__122__compressed_pair_elemINS_12basic_stringIcNS_11char_traitsIcEENS_9allocatorIcEEE5__repELi0ELb0EEC2B8ue170006ENS_18__default_init_tagE, symObjAddr: 0x608, symBinAddr: 0x100003460, symSize: 0x14 }
  - { offsetInCU: 0x8308, offset: 0x8308, size: 0x8, addend: 0x0, symName: __ZNSt3__122__compressed_pair_elemINS_9allocatorIcEELi1ELb1EEC2B8ue170006ENS_18__default_init_tagE, symObjAddr: 0x61C, symBinAddr: 0x100003474, symSize: 0x2C }
  - { offsetInCU: 0x833A, offset: 0x833A, size: 0x8, addend: 0x0, symName: __ZNSt3__19allocatorIcEC2B8ue170006Ev, symObjAddr: 0x648, symBinAddr: 0x1000034A0, symSize: 0x2C }
  - { offsetInCU: 0x8362, offset: 0x8362, size: 0x8, addend: 0x0, symName: __ZNSt3__116__non_trivial_ifILb1ENS_9allocatorIcEEEC2B8ue170006Ev, symObjAddr: 0x674, symBinAddr: 0x1000034CC, symSize: 0x14 }
  - { offsetInCU: 0x838A, offset: 0x838A, size: 0x8, addend: 0x0, symName: __ZNSt3__117__compressed_pairINS_12basic_stringIcNS_11char_traitsIcEENS_9allocatorIcEEE5__repES5_E5firstB8ue170006Ev, symObjAddr: 0x688, symBinAddr: 0x1000034E0, symSize: 0x24 }
  - { offsetInCU: 0x83AE, offset: 0x83AE, size: 0x8, addend: 0x0, symName: __ZNSt3__122__compressed_pair_elemINS_12basic_stringIcNS_11char_traitsIcEENS_9allocatorIcEEE5__repELi0ELb0EE5__getB8ue170006Ev, symObjAddr: 0x6AC, symBinAddr: 0x100003504, symSize: 0x14 }
  - { offsetInCU: 0x8479, offset: 0x8479, size: 0x8, addend: 0x0, symName: __ZNKSt3__113basic_istreamIcNS_11char_traitsIcEEE6sentrycvbB8ue170006Ev, symObjAddr: 0x6C0, symBinAddr: 0x100003518, symSize: 0x1C }
  - { offsetInCU: 0x849D, offset: 0x849D, size: 0x8, addend: 0x0, symName: __ZNSt3__112basic_stringIcNS_11char_traitsIcEENS_9allocatorIcEEE5clearB8ue170006Ev, symObjAddr: 0x6DC, symBinAddr: 0x100003534, symSize: 0x78 }
  - { offsetInCU: 0x84C3, offset: 0x84C3, size: 0x8, addend: 0x0, symName: __ZNKSt3__18ios_base5widthB8ue170006Ev, symObjAddr: 0x754, symBinAddr: 0x1000035AC, symSize: 0x18 }
  - { offsetInCU: 0x84E9, offset: 0x84E9, size: 0x8, addend: 0x0, symName: __ZNKSt3__112basic_stringIcNS_11char_traitsIcEENS_9allocatorIcEEE8max_sizeB8ue170006Ev, symObjAddr: 0x76C, symBinAddr: 0x1000035C4, symSize: 0xAC }
  - { offsetInCU: 0x853A, offset: 0x853A, size: 0x8, addend: 0x0, symName: __ZNSt3__114numeric_limitsIlE3maxB8ue170006Ev, symObjAddr: 0x818, symBinAddr: 0x100003670, symSize: 0x14 }
  - { offsetInCU: 0x854D, offset: 0x854D, size: 0x8, addend: 0x0, symName: __ZNKSt3__19basic_iosIcNS_11char_traitsIcEEE5rdbufB8ue170006Ev, symObjAddr: 0x858, symBinAddr: 0x1000036B0, symSize: 0x24 }
  - { offsetInCU: 0x8573, offset: 0x8573, size: 0x8, addend: 0x0, symName: __ZNSt3__115basic_streambufIcNS_11char_traitsIcEEE5sgetcB8ue170006Ev, symObjAddr: 0x87C, symBinAddr: 0x1000036D4, symSize: 0x70 }
  - { offsetInCU: 0x8598, offset: 0x8598, size: 0x8, addend: 0x0, symName: __ZNSt3__111char_traitsIcE11eq_int_typeB8ue170006Eii, symObjAddr: 0x8EC, symBinAddr: 0x100003744, symSize: 0x28 }
  - { offsetInCU: 0x85CB, offset: 0x85CB, size: 0x8, addend: 0x0, symName: __ZNSt3__111char_traitsIcE3eofB8ue170006Ev, symObjAddr: 0x914, symBinAddr: 0x10000376C, symSize: 0x8 }
  - { offsetInCU: 0x85DF, offset: 0x85DF, size: 0x8, addend: 0x0, symName: __ZNSt3__111char_traitsIcE12to_char_typeB8ue170006Ei, symObjAddr: 0x91C, symBinAddr: 0x100003774, symSize: 0x18 }
  - { offsetInCU: 0x862E, offset: 0x862E, size: 0x8, addend: 0x0, symName: __ZNKSt3__15ctypeIcE2isB8ue170006Ejc, symObjAddr: 0x934, symBinAddr: 0x10000378C, symSize: 0x7C }
  - { offsetInCU: 0x8670, offset: 0x8670, size: 0x8, addend: 0x0, symName: __ZNSt3__115basic_streambufIcNS_11char_traitsIcEEE6sbumpcB8ue170006Ev, symObjAddr: 0x9B0, symBinAddr: 0x100003808, symSize: 0x78 }
  - { offsetInCU: 0x8694, offset: 0x8694, size: 0x8, addend: 0x0, symName: __ZNSt3__18ios_base5widthB8ue170006El, symObjAddr: 0xA28, symBinAddr: 0x100003880, symSize: 0x2C }
  - { offsetInCU: 0x86D8, offset: 0x86D8, size: 0x8, addend: 0x0, symName: __ZNSt3__18ios_base18__setstate_nothrowB8ue170006Ej, symObjAddr: 0xA54, symBinAddr: 0x1000038AC, symSize: 0x64 }
  - { offsetInCU: 0x870B, offset: 0x870B, size: 0x8, addend: 0x0, symName: __ZNKSt3__19basic_iosIcNS_11char_traitsIcEEE10exceptionsB8ue170006Ev, symObjAddr: 0xAB8, symBinAddr: 0x100003910, symSize: 0x24 }
  - { offsetInCU: 0x872F, offset: 0x872F, size: 0x8, addend: 0x0, symName: __ZNSt3__19basic_iosIcNS_11char_traitsIcEEE8setstateB8ue170006Ej, symObjAddr: 0xADC, symBinAddr: 0x100003934, symSize: 0x2C }
  - { offsetInCU: 0x8762, offset: 0x8762, size: 0x8, addend: 0x0, symName: __ZNKSt3__112basic_stringIcNS_11char_traitsIcEENS_9allocatorIcEEE9__is_longB8ue170006Ev, symObjAddr: 0xB08, symBinAddr: 0x100003960, symSize: 0x38 }
  - { offsetInCU: 0x8787, offset: 0x8787, size: 0x8, addend: 0x0, symName: __ZNSt3__111char_traitsIcE6assignB8ue170006ERcRKc, symObjAddr: 0xB40, symBinAddr: 0x100003998, symSize: 0x24 }
  - { offsetInCU: 0x87B7, offset: 0x87B7, size: 0x8, addend: 0x0, symName: __ZNSt3__112basic_stringIcNS_11char_traitsIcEENS_9allocatorIcEEE18__get_long_pointerB8ue170006Ev, symObjAddr: 0xB64, symBinAddr: 0x1000039BC, symSize: 0x28 }
  - { offsetInCU: 0x87DB, offset: 0x87DB, size: 0x8, addend: 0x0, symName: __ZNSt3__112basic_stringIcNS_11char_traitsIcEENS_9allocatorIcEEE15__set_long_sizeB8ue170006Em, symObjAddr: 0xB8C, symBinAddr: 0x1000039E4, symSize: 0x38 }
  - { offsetInCU: 0x880E, offset: 0x880E, size: 0x8, addend: 0x0, symName: __ZNSt3__112basic_stringIcNS_11char_traitsIcEENS_9allocatorIcEEE19__get_short_pointerB8ue170006Ev, symObjAddr: 0xBC4, symBinAddr: 0x100003A1C, symSize: 0x28 }
  - { offsetInCU: 0x8832, offset: 0x8832, size: 0x8, addend: 0x0, symName: __ZNSt3__112basic_stringIcNS_11char_traitsIcEENS_9allocatorIcEEE16__set_short_sizeB8ue170006Em, symObjAddr: 0xBEC, symBinAddr: 0x100003A44, symSize: 0x78 }
  - { offsetInCU: 0x8865, offset: 0x8865, size: 0x8, addend: 0x0, symName: __ZNKSt3__117__compressed_pairINS_12basic_stringIcNS_11char_traitsIcEENS_9allocatorIcEEE5__repES5_E5firstB8ue170006Ev, symObjAddr: 0xC64, symBinAddr: 0x100003ABC, symSize: 0x24 }
  - { offsetInCU: 0x8889, offset: 0x8889, size: 0x8, addend: 0x0, symName: __ZNKSt3__122__compressed_pair_elemINS_12basic_stringIcNS_11char_traitsIcEENS_9allocatorIcEEE5__repELi0ELb0EE5__getB8ue170006Ev, symObjAddr: 0xC88, symBinAddr: 0x100003AE0, symSize: 0x14 }
  - { offsetInCU: 0x88AE, offset: 0x88AE, size: 0x8, addend: 0x0, symName: __ZNSt3__114pointer_traitsIPcE10pointer_toB8ue170006ERc, symObjAddr: 0xC9C, symBinAddr: 0x100003AF4, symSize: 0x14 }
  - { offsetInCU: 0x88DB, offset: 0x88DB, size: 0x8, addend: 0x0, symName: __ZNSt3__116allocator_traitsINS_9allocatorIcEEE8max_sizeB8ue170006IS2_vEEmRKS2_, symObjAddr: 0xCB0, symBinAddr: 0x100003B08, symSize: 0x24 }
  - { offsetInCU: 0x8908, offset: 0x8908, size: 0x8, addend: 0x0, symName: __ZNKSt3__112basic_stringIcNS_11char_traitsIcEENS_9allocatorIcEEE7__allocB8ue170006Ev, symObjAddr: 0xCD4, symBinAddr: 0x100003B2C, symSize: 0x24 }
  - { offsetInCU: 0x892D, offset: 0x892D, size: 0x8, addend: 0x0, symName: __ZNSt3__114numeric_limitsImE3maxB8ue170006Ev, symObjAddr: 0xCF8, symBinAddr: 0x100003B50, symSize: 0x14 }
  - { offsetInCU: 0x8940, offset: 0x8940, size: 0x8, addend: 0x0, symName: __ZNKSt3__19allocatorIcE8max_sizeB8ue170006Ev, symObjAddr: 0xD0C, symBinAddr: 0x100003B64, symSize: 0x14 }
  - { offsetInCU: 0x8964, offset: 0x8964, size: 0x8, addend: 0x0, symName: __ZNKSt3__117__compressed_pairINS_12basic_stringIcNS_11char_traitsIcEENS_9allocatorIcEEE5__repES5_E6secondB8ue170006Ev, symObjAddr: 0xD20, symBinAddr: 0x100003B78, symSize: 0x24 }
  - { offsetInCU: 0x8988, offset: 0x8988, size: 0x8, addend: 0x0, symName: __ZNKSt3__122__compressed_pair_elemINS_9allocatorIcEELi1ELb1EE5__getB8ue170006Ev, symObjAddr: 0xD44, symBinAddr: 0x100003B9C, symSize: 0x14 }
  - { offsetInCU: 0x89AD, offset: 0x89AD, size: 0x8, addend: 0x0, symName: __ZNSt3__123__libcpp_numeric_limitsImLb1EE3maxB8ue170006Ev, symObjAddr: 0xD58, symBinAddr: 0x100003BB0, symSize: 0x8 }
  - { offsetInCU: 0x89C1, offset: 0x89C1, size: 0x8, addend: 0x0, symName: __ZNSt3__123__libcpp_numeric_limitsIlLb1EE3maxB8ue170006Ev, symObjAddr: 0xD60, symBinAddr: 0x100003BB8, symSize: 0x8 }
  - { offsetInCU: 0x89D4, offset: 0x89D4, size: 0x8, addend: 0x0, symName: __ZNKSt3__18ios_base5rdbufB8ue170006Ev, symObjAddr: 0xD68, symBinAddr: 0x100003BC0, symSize: 0x18 }
  - { offsetInCU: 0x89F9, offset: 0x89F9, size: 0x8, addend: 0x0, symName: __ZNSt3__111char_traitsIcE11to_int_typeB8ue170006Ec, symObjAddr: 0xD80, symBinAddr: 0x100003BD8, symSize: 0x14 }
  - { offsetInCU: 0x8A1D, offset: 0x8A1D, size: 0x8, addend: 0x0, symName: __Z7isasciii, symObjAddr: 0xD94, symBinAddr: 0x100003BEC, symSize: 0x24 }
  - { offsetInCU: 0x8A49, offset: 0x8A49, size: 0x8, addend: 0x0, symName: __ZNKSt3__18ios_base10exceptionsB8ue170006Ev, symObjAddr: 0xDB8, symBinAddr: 0x100003C10, symSize: 0x18 }
  - { offsetInCU: 0x8A6F, offset: 0x8A6F, size: 0x8, addend: 0x0, symName: __ZNSt3__18ios_base8setstateB8ue170006Ej, symObjAddr: 0xDD0, symBinAddr: 0x100003C28, symSize: 0x34 }
  - { offsetInCU: 0x8AA4, offset: 0x8AA4, size: 0x8, addend: 0x0, symName: __ZNSt3__112basic_stringIcNS_11char_traitsIcEENS_9allocatorIcEEE13__get_pointerB8ue170006Ev, symObjAddr: 0xE04, symBinAddr: 0x100003C5C, symSize: 0x54 }
  - { offsetInCU: 0x8AC8, offset: 0x8AC8, size: 0x8, addend: 0x0, symName: __ZNKSt3__19basic_iosIcNS_11char_traitsIcEEE5widenB8ue170006Ec, symObjAddr: 0xE58, symBinAddr: 0x100003CB0, symSize: 0x84 }
  - { offsetInCU: 0x8AFD, offset: 0x8AFD, size: 0x8, addend: 0x0, symName: __ZNKSt3__15ctypeIcE5widenB8ue170006Ec, symObjAddr: 0xEDC, symBinAddr: 0x100003D34, symSize: 0x38 }
...
