---
triple:          'arm64-apple-darwin'
binary-path:     '/Users/sajidhasan/VSCODE/gen_par'
relocations:
  - { offsetInCU: 0x7027, offset: 0x7027, size: 0x8, addend: 0x0, symName: __ZNSt3__124__put_character_sequenceB8ue170006IcNS_11char_traitsIcEEEERNS_13basic_ostreamIT_T0_EES7_PKS4_m, symObjAddr: 0x7004, symBinAddr: 0x10000ABCC, symSize: 0x1EC }
  - { offsetInCU: 0x8B99, offset: 0x8B99, size: 0x8, addend: 0x0, symName: __ZNSt3__1lsB8ue170006INS_11char_traitsIcEEEERNS_13basic_ostreamIcT_EES6_PKc, symObjAddr: 0x298, symBinAddr: 0x100003E60, symSize: 0x48 }
  - { offsetInCU: 0x8BDF, offset: 0x8BDF, size: 0x8, addend: 0x0, symName: __ZNSt3__14endlB8ue170006IcNS_11char_traitsIcEEEERNS_13basic_ostreamIT_T0_EES7_, symObjAddr: 0x30C, symBinAddr: 0x100003ED4, symSize: 0x58 }
  - { offsetInCU: 0x8C1F, offset: 0x8C1F, size: 0x8, addend: 0x0, symName: __ZNSt3__1neB8ue170006IPNS_12basic_stringIcNS_11char_traitsIcEENS_9allocatorIcEEEEEEbRKNS_11__wrap_iterIT_EESC_, symObjAddr: 0x3C4, symBinAddr: 0x100003F8C, symSize: 0x34 }
  - { offsetInCU: 0x8C62, offset: 0x8C62, size: 0x8, addend: 0x0, symName: __ZNSt3__1lsB8ue170006IcNS_11char_traitsIcEENS_9allocatorIcEEEERNS_13basic_ostreamIT_T0_EES9_RKNS_12basic_stringIS6_S7_T1_EE, symObjAddr: 0x410, symBinAddr: 0x100003FD8, symSize: 0x4C }
  - { offsetInCU: 0x8CBA, offset: 0x8CBA, size: 0x8, addend: 0x0, symName: __ZNSt3__118__constexpr_strlenB8ue170006EPKc, symObjAddr: 0xA28, symBinAddr: 0x1000045F0, symSize: 0x24 }
  - { offsetInCU: 0x8CE6, offset: 0x8CE6, size: 0x8, addend: 0x0, symName: __ZNSt3__112__to_addressB8ue170006IKcEEPT_S3_, symObjAddr: 0xD74, symBinAddr: 0x10000493C, symSize: 0x14 }
  - { offsetInCU: 0x8F1C, offset: 0x8F1C, size: 0x8, addend: 0x0, symName: __ZNSt3__112__to_addressB8ue170006IcEEPT_S2_, symObjAddr: 0x19E4, symBinAddr: 0x1000055AC, symSize: 0x14 }
  - { offsetInCU: 0x8F84, offset: 0x8F84, size: 0x8, addend: 0x0, symName: __ZNSt3__13maxB8ue170006ImEERKT_S3_S3_, symObjAddr: 0x2AD0, symBinAddr: 0x100006698, symSize: 0x2C }
  - { offsetInCU: 0x9420, offset: 0x9420, size: 0x8, addend: 0x0, symName: __ZNSt3__14swapB8ue170006IPPcEENS_9enable_ifIXaasr21is_move_constructibleIT_EE5valuesr18is_move_assignableIS4_EE5valueEvE4typeERS4_S7_, symObjAddr: 0x3138, symBinAddr: 0x100006D00, symSize: 0x3C }
  - { offsetInCU: 0x9471, offset: 0x9471, size: 0x8, addend: 0x0, symName: __ZNSt3__14moveB8ue170006IPPcS2_EET0_T_S4_S3_, symObjAddr: 0x3268, symBinAddr: 0x100006E30, symSize: 0x40 }
  - { offsetInCU: 0x94E7, offset: 0x94E7, size: 0x8, addend: 0x0, symName: __ZNSt3__112__to_addressB8ue170006IPcEEPT_S3_, symObjAddr: 0x3370, symBinAddr: 0x100006F38, symSize: 0x14 }
  - { offsetInCU: 0x951C, offset: 0x951C, size: 0x8, addend: 0x0, symName: __ZNSt3__16__moveB8ue170006INS_17_ClassicAlgPolicyEPPcS3_S3_EENS_4pairIT0_T2_EES5_T1_S6_, symObjAddr: 0x3384, symBinAddr: 0x100006F4C, symSize: 0x44 }
  - { offsetInCU: 0x9588, offset: 0x9588, size: 0x8, addend: 0x0, symName: __ZNSt3__123__dispatch_copy_or_moveB8ue170006INS_17_ClassicAlgPolicyENS_11__move_loopIS1_EENS_14__move_trivialEPPcS6_S6_EENS_4pairIT2_T4_EES8_T3_S9_, symObjAddr: 0x33C8, symBinAddr: 0x100006F90, symSize: 0x44 }
  - { offsetInCU: 0x9606, offset: 0x9606, size: 0x8, addend: 0x0, symName: __ZNSt3__121__unwrap_and_dispatchB8ue170006INS_10__overloadINS_11__move_loopINS_17_ClassicAlgPolicyEEENS_14__move_trivialEEEPPcS8_S8_Li0EEENS_4pairIT0_T2_EESA_T1_SB_, symObjAddr: 0x340C, symBinAddr: 0x100006FD4, symSize: 0xB4 }
  - { offsetInCU: 0x9694, offset: 0x9694, size: 0x8, addend: 0x0, symName: __ZNSt3__114__unwrap_rangeB8ue170006IPPcS2_EENS_4pairIT0_S4_EET_S6_, symObjAddr: 0x34C0, symBinAddr: 0x100007088, symSize: 0x60 }
  - { offsetInCU: 0x9858, offset: 0x9858, size: 0x8, addend: 0x0, symName: __ZNSt3__113__unwrap_iterB8ue170006IPPcNS_18__unwrap_iter_implIS2_Lb1EEELi0EEEDTclsrT0_8__unwrapclsr3stdE7declvalIT_EEEES6_, symObjAddr: 0x3568, symBinAddr: 0x100007130, symSize: 0x24 }
  - { offsetInCU: 0x989C, offset: 0x989C, size: 0x8, addend: 0x0, symName: __ZNSt3__19make_pairB8ue170006IPPcS2_EENS_4pairINS_18__unwrap_ref_decayIT_E4typeENS4_IT0_E4typeEEEOS5_OS8_, symObjAddr: 0x358C, symBinAddr: 0x100007154, symSize: 0x38 }
  - { offsetInCU: 0x98EB, offset: 0x98EB, size: 0x8, addend: 0x0, symName: __ZNSt3__114__rewrap_rangeB8ue170006IPPcS2_EET_S3_T0_, symObjAddr: 0x35C4, symBinAddr: 0x10000718C, symSize: 0x2C }
  - { offsetInCU: 0x9937, offset: 0x9937, size: 0x8, addend: 0x0, symName: __ZNSt3__113__rewrap_iterB8ue170006IPPcS2_NS_18__unwrap_iter_implIS2_Lb1EEEEET_S5_T0_, symObjAddr: 0x35F0, symBinAddr: 0x1000071B8, symSize: 0x3C }
  - { offsetInCU: 0x998C, offset: 0x998C, size: 0x8, addend: 0x0, symName: __ZNSt3__119__copy_trivial_implB8ue170006IPcS1_EENS_4pairIPT_PT0_EES4_S4_S6_, symObjAddr: 0x362C, symBinAddr: 0x1000071F4, symSize: 0x80 }
  - { offsetInCU: 0x99F4, offset: 0x99F4, size: 0x8, addend: 0x0, symName: __ZNSt3__119__constexpr_memmoveB8ue170006IPcS1_Li0EEEPT_S3_PT0_NS_15__element_countE, symObjAddr: 0x36AC, symBinAddr: 0x100007274, symSize: 0x64 }
  - { offsetInCU: 0x9A62, offset: 0x9A62, size: 0x8, addend: 0x0, symName: __ZNSt3__19make_pairB8ue170006IRPPcS2_EENS_4pairINS_18__unwrap_ref_decayIT_E4typeENS5_IT0_E4typeEEEOS6_OS9_, symObjAddr: 0x3710, symBinAddr: 0x1000072D8, symSize: 0x38 }
  - { offsetInCU: 0x9B04, offset: 0x9B04, size: 0x8, addend: 0x0, symName: __ZNSt3__18distanceB8ue170006INS_13move_iteratorIPPcEEEENS_15iterator_traitsIT_E15difference_typeES6_S6_, symObjAddr: 0x3978, symBinAddr: 0x100007540, symSize: 0x3C }
  - { offsetInCU: 0x9B47, offset: 0x9B47, size: 0x8, addend: 0x0, symName: __ZNSt3__110__distanceB8ue170006INS_13move_iteratorIPPcEEEENS_15iterator_traitsIT_E15difference_typeES6_S6_NS_26random_access_iterator_tagE, symObjAddr: 0x3B7C, symBinAddr: 0x100007744, symSize: 0x30 }
  - { offsetInCU: 0x9B94, offset: 0x9B94, size: 0x8, addend: 0x0, symName: __ZNSt3__1miB8ue170006IPPcS2_EEDTmicldtfp_4baseEcldtfp0_4baseEERKNS_13move_iteratorIT_EERKNS4_IT0_EE, symObjAddr: 0x3BAC, symBinAddr: 0x100007774, symSize: 0x48 }
  - { offsetInCU: 0x9BE3, offset: 0x9BE3, size: 0x8, addend: 0x0, symName: __ZNSt3__117__libcpp_allocateB8ue170006Emm, symObjAddr: 0x3D64, symBinAddr: 0x10000792C, symSize: 0x28 }
  - { offsetInCU: 0x9C20, offset: 0x9C20, size: 0x8, addend: 0x0, symName: __ZNSt3__121__libcpp_operator_newB8ue170006IJmEEEPvDpT_, symObjAddr: 0x3DA0, symBinAddr: 0x100007968, symSize: 0x24 }
  - { offsetInCU: 0x9C59, offset: 0x9C59, size: 0x8, addend: 0x0, symName: __ZNSt3__113move_backwardB8ue170006IPPcS2_EET0_T_S4_S3_, symObjAddr: 0x3DC4, symBinAddr: 0x10000798C, symSize: 0x40 }
  - { offsetInCU: 0x9CB3, offset: 0x9CB3, size: 0x8, addend: 0x0, symName: __ZNSt3__115__move_backwardB8ue170006INS_17_ClassicAlgPolicyEPPcS3_S3_EENS_4pairIT0_T2_EES5_T1_S6_, symObjAddr: 0x3E04, symBinAddr: 0x1000079CC, symSize: 0x44 }
  - { offsetInCU: 0x9D1F, offset: 0x9D1F, size: 0x8, addend: 0x0, symName: __ZNSt3__123__dispatch_copy_or_moveB8ue170006INS_17_ClassicAlgPolicyENS_20__move_backward_loopIS1_EENS_23__move_backward_trivialEPPcS6_S6_EENS_4pairIT2_T4_EES8_T3_S9_, symObjAddr: 0x3E48, symBinAddr: 0x100007A10, symSize: 0x44 }
  - { offsetInCU: 0x9D9D, offset: 0x9D9D, size: 0x8, addend: 0x0, symName: __ZNSt3__121__unwrap_and_dispatchB8ue170006INS_10__overloadINS_20__move_backward_loopINS_17_ClassicAlgPolicyEEENS_23__move_backward_trivialEEEPPcS8_S8_Li0EEENS_4pairIT0_T2_EESA_T1_SB_, symObjAddr: 0x3E8C, symBinAddr: 0x100007A54, symSize: 0xB4 }
  - { offsetInCU: 0x9E71, offset: 0x9E71, size: 0x8, addend: 0x0, symName: __ZNSt3__128__copy_backward_trivial_implB8ue170006IPcS1_EENS_4pairIPT_PT0_EES4_S4_S6_, symObjAddr: 0x3F88, symBinAddr: 0x100007B50, symSize: 0x90 }
  - { offsetInCU: 0x9ED9, offset: 0x9ED9, size: 0x8, addend: 0x0, symName: __ZNSt3__19make_pairB8ue170006IRPPcS3_EENS_4pairINS_18__unwrap_ref_decayIT_E4typeENS5_IT0_E4typeEEEOS6_OS9_, symObjAddr: 0x4018, symBinAddr: 0x100007BE0, symSize: 0x38 }
  - { offsetInCU: 0x9F28, offset: 0x9F28, size: 0x8, addend: 0x0, symName: __ZNSt3__13maxB8ue170006ImNS_6__lessIvvEEEERKT_S5_S5_T0_, symObjAddr: 0x4104, symBinAddr: 0x100007CCC, symSize: 0x54 }
  - { offsetInCU: 0x9FC7, offset: 0x9FC7, size: 0x8, addend: 0x0, symName: __ZNSt3__119__allocate_at_leastB8ue170006INS_9allocatorIPcEEEENS_19__allocation_resultINS_16allocator_traitsIT_E7pointerEEERS6_m, symObjAddr: 0x42D4, symBinAddr: 0x100007E9C, symSize: 0x40 }
  - { offsetInCU: 0xA00A, offset: 0xA00A, size: 0x8, addend: 0x0, symName: __ZNSt3__119__libcpp_deallocateB8ue170006EPvmm, symObjAddr: 0x47A4, symBinAddr: 0x10000836C, symSize: 0x30 }
  - { offsetInCU: 0xA052, offset: 0xA052, size: 0x8, addend: 0x0, symName: __ZNSt3__127__do_deallocate_handle_sizeB8ue170006IJEEEvPvmDpT_, symObjAddr: 0x47D4, symBinAddr: 0x10000839C, symSize: 0x28 }
  - { offsetInCU: 0xA090, offset: 0xA090, size: 0x8, addend: 0x0, symName: __ZNSt3__124__libcpp_operator_deleteB8ue170006IJPvEEEvDpT_, symObjAddr: 0x47FC, symBinAddr: 0x1000083C4, symSize: 0x24 }
  - { offsetInCU: 0xA0C5, offset: 0xA0C5, size: 0x8, addend: 0x0, symName: __ZNSt3__1neB8ue170006ERKNS_16__deque_iteratorIcPcRcPS1_lLl4096EEES6_, symObjAddr: 0x5360, symBinAddr: 0x100008F28, symSize: 0x34 }
  - { offsetInCU: 0xA102, offset: 0xA102, size: 0x8, addend: 0x0, symName: __ZNSt3__1eqB8ue170006ERKNS_16__deque_iteratorIcPcRcPS1_lLl4096EEES6_, symObjAddr: 0x53FC, symBinAddr: 0x100008FC4, symSize: 0x30 }
  - { offsetInCU: 0xA13F, offset: 0xA13F, size: 0x8, addend: 0x0, symName: __ZNSt3__112__to_addressB8ue170006INS_12basic_stringIcNS_11char_traitsIcEENS_9allocatorIcEEEEEEPT_S8_, symObjAddr: 0x5734, symBinAddr: 0x1000092FC, symSize: 0x14 }
  - { offsetInCU: 0xA174, offset: 0xA174, size: 0x8, addend: 0x0, symName: __ZNSt3__13minB8ue170006ImEERKT_S3_S3_, symObjAddr: 0x5B38, symBinAddr: 0x100009700, symSize: 0x2C }
  - { offsetInCU: 0xA3B8, offset: 0xA3B8, size: 0x8, addend: 0x0, symName: __ZNSt3__13minB8ue170006ImNS_6__lessIvvEEEERKT_S5_S5_T0_, symObjAddr: 0x5BC4, symBinAddr: 0x10000978C, symSize: 0x54 }
  - { offsetInCU: 0xA412, offset: 0xA412, size: 0x8, addend: 0x0, symName: __ZNSt3__120__throw_length_errorB8ue170006EPKc, symObjAddr: 0x5C70, symBinAddr: 0x100009838, symSize: 0x64 }
  - { offsetInCU: 0xA43C, offset: 0xA43C, size: 0x8, addend: 0x0, symName: __ZNSt3__119__allocate_at_leastB8ue170006INS_9allocatorINS_12basic_stringIcNS_11char_traitsIcEENS1_IcEEEEEEEENS_19__allocation_resultINS_16allocator_traitsIT_E7pointerEEERSA_m, symObjAddr: 0x5ED0, symBinAddr: 0x100009A98, symSize: 0x40 }
  - { offsetInCU: 0xA47F, offset: 0xA47F, size: 0x8, addend: 0x0, symName: __ZNSt3__142__uninitialized_allocator_move_if_noexceptB8ue170006INS_9allocatorINS_12basic_stringIcNS_11char_traitsIcEENS1_IcEEEEEENS_16reverse_iteratorIPS6_EESA_SA_EET2_RT_T0_T1_SB_, symObjAddr: 0x615C, symBinAddr: 0x100009D24, symSize: 0x12C }
  - { offsetInCU: 0xA51F, offset: 0xA51F, size: 0x8, addend: 0x0, symName: __ZNSt3__14swapB8ue170006IPNS_12basic_stringIcNS_11char_traitsIcEENS_9allocatorIcEEEEEENS_9enable_ifIXaasr21is_move_constructibleIT_EE5valuesr18is_move_assignableIS9_EE5valueEvE4typeERS9_SC_, symObjAddr: 0x62D4, symBinAddr: 0x100009E9C, symSize: 0x3C }
  - { offsetInCU: 0xA570, offset: 0xA570, size: 0x8, addend: 0x0, symName: __ZNSt3__122__make_exception_guardB8ue170006INS_29_AllocatorDestroyRangeReverseINS_9allocatorINS_12basic_stringIcNS_11char_traitsIcEENS2_IcEEEEEENS_16reverse_iteratorIPS7_EEEEEENS_28__exception_guard_exceptionsIT_EESE_, symObjAddr: 0x6420, symBinAddr: 0x100009FE8, symSize: 0x4C }
  - { offsetInCU: 0xA5A6, offset: 0xA5A6, size: 0x8, addend: 0x0, symName: __ZNSt3__1neB8ue170006IPNS_12basic_stringIcNS_11char_traitsIcEENS_9allocatorIcEEEES7_EEbRKNS_16reverse_iteratorIT_EERKNS8_IT0_EE, symObjAddr: 0x64B0, symBinAddr: 0x10000A078, symSize: 0x48 }
  - { offsetInCU: 0xA5F2, offset: 0xA5F2, size: 0x8, addend: 0x0, symName: __ZNSt3__112__to_addressB8ue170006INS_16reverse_iteratorIPNS_12basic_stringIcNS_11char_traitsIcEENS_9allocatorIcEEEEEEvEEu7__decayIDTclsr19__to_address_helperIT_EE6__callclsr3stdE7declvalIRKSA_EEEEESC_, symObjAddr: 0x652C, symBinAddr: 0x10000A0F4, symSize: 0x24 }
  - { offsetInCU: 0xA651, offset: 0xA651, size: 0x8, addend: 0x0, symName: __ZNSt3__119__allocator_destroyB8ue170006INS_9allocatorINS_12basic_stringIcNS_11char_traitsIcEENS1_IcEEEEEENS_16reverse_iteratorINS8_IPS6_EEEESB_EEvRT_T0_T1_, symObjAddr: 0x6888, symBinAddr: 0x10000A450, symSize: 0x70 }
  - { offsetInCU: 0xA6B6, offset: 0xA6B6, size: 0x8, addend: 0x0, symName: __ZNSt3__1neB8ue170006INS_16reverse_iteratorIPNS_12basic_stringIcNS_11char_traitsIcEENS_9allocatorIcEEEEEES9_EEbRKNS1_IT_EERKNS1_IT0_EE, symObjAddr: 0x6934, symBinAddr: 0x10000A4FC, symSize: 0x60 }
  - { offsetInCU: 0xA702, offset: 0xA702, size: 0x8, addend: 0x0, symName: __ZNSt3__112__to_addressB8ue170006INS_16reverse_iteratorINS1_IPNS_12basic_stringIcNS_11char_traitsIcEENS_9allocatorIcEEEEEEEEvEEu7__decayIDTclsr19__to_address_helperIT_EE6__callclsr3stdE7declvalIRKSB_EEEEESD_, symObjAddr: 0x69C0, symBinAddr: 0x10000A588, symSize: 0x24 }
  - { offsetInCU: 0xA761, offset: 0xA761, size: 0x8, addend: 0x0, symName: __ZNSt3__1eqB8ue170006IPNS_12basic_stringIcNS_11char_traitsIcEENS_9allocatorIcEEEEEEbRKNS_11__wrap_iterIT_EESC_, symObjAddr: 0x6DC8, symBinAddr: 0x10000A990, symSize: 0x48 }
  - { offsetInCU: 0xA7A4, offset: 0xA7A4, size: 0x8, addend: 0x0, symName: __ZNSt3__116__pad_and_outputB8ue170006IcNS_11char_traitsIcEEEENS_19ostreambuf_iteratorIT_T0_EES6_PKS4_S8_S8_RNS_8ios_baseES4_, symObjAddr: 0x720C, symBinAddr: 0x10000ADD4, symSize: 0x240 }
  - { offsetInCU: 0xA873, offset: 0xA873, size: 0x8, addend: 0x0, symName: __ZNSt3__19use_facetB8ue170006INS_5ctypeIcEEEERKT_RKNS_6localeE, symObjAddr: 0x7798, symBinAddr: 0x10000B360, symSize: 0x2C }
  - { offsetInCU: 0xB0F0, offset: 0xB0F0, size: 0x8, addend: 0x0, symName: __ZSt28__throw_bad_array_new_lengthB8ue170006v, symObjAddr: 0x3D30, symBinAddr: 0x1000078F8, symSize: 0x34 }
  - { offsetInCU: 0xB7D0, offset: 0xB7D0, size: 0x8, addend: 0x0, symName: __ZNSt3__16vectorINS_12basic_stringIcNS_11char_traitsIcEENS_9allocatorIcEEEENS4_IS6_EEE26__swap_out_circular_bufferERNS_14__split_bufferIS6_RS7_EE, symObjAddr: 0x5940, symBinAddr: 0x100009508, symSize: 0x110 }
  - { offsetInCU: 0xDC8C, offset: 0xDC8C, size: 0x8, addend: 0x0, symName: _main, symObjAddr: 0x0, symBinAddr: 0x100003BC8, symSize: 0x114 }
  - { offsetInCU: 0xDD89, offset: 0xDD89, size: 0x8, addend: 0x0, symName: __ZN8Solution19generateParenthesisEi, symObjAddr: 0x114, symBinAddr: 0x100003CDC, symSize: 0x184 }
  - { offsetInCU: 0xDE05, offset: 0xDE05, size: 0x8, addend: 0x0, symName: __ZNSt3__113basic_ostreamIcNS_11char_traitsIcEEElsB8ue170006EPFRS3_S4_E, symObjAddr: 0x2E0, symBinAddr: 0x100003EA8, symSize: 0x2C }
  - { offsetInCU: 0xDE37, offset: 0xDE37, size: 0x8, addend: 0x0, symName: __ZNSt3__16vectorINS_12basic_stringIcNS_11char_traitsIcEENS_9allocatorIcEEEENS4_IS6_EEE5beginB8ue170006Ev, symObjAddr: 0x364, symBinAddr: 0x100003F2C, symSize: 0x30 }
  - { offsetInCU: 0xDE5D, offset: 0xDE5D, size: 0x8, addend: 0x0, symName: __ZNSt3__16vectorINS_12basic_stringIcNS_11char_traitsIcEENS_9allocatorIcEEEENS4_IS6_EEE3endB8ue170006Ev, symObjAddr: 0x394, symBinAddr: 0x100003F5C, symSize: 0x30 }
  - { offsetInCU: 0xDE84, offset: 0xDE84, size: 0x8, addend: 0x0, symName: __ZNKSt3__111__wrap_iterIPNS_12basic_stringIcNS_11char_traitsIcEENS_9allocatorIcEEEEEdeB8ue170006Ev, symObjAddr: 0x3F8, symBinAddr: 0x100003FC0, symSize: 0x18 }
  - { offsetInCU: 0xDEA9, offset: 0xDEA9, size: 0x8, addend: 0x0, symName: __ZNSt3__111__wrap_iterIPNS_12basic_stringIcNS_11char_traitsIcEENS_9allocatorIcEEEEEppB8ue170006Ev, symObjAddr: 0x45C, symBinAddr: 0x100004024, symSize: 0x20 }
  - { offsetInCU: 0xDECE, offset: 0xDECE, size: 0x8, addend: 0x0, symName: __ZNSt3__16vectorINS_12basic_stringIcNS_11char_traitsIcEENS_9allocatorIcEEEENS4_IS6_EEED1B8ue170006Ev, symObjAddr: 0x47C, symBinAddr: 0x100004044, symSize: 0x2C }
  - { offsetInCU: 0xDEFC, offset: 0xDEFC, size: 0x8, addend: 0x0, symName: __ZNSt3__112basic_stringIcNS_11char_traitsIcEENS_9allocatorIcEEEC1B8ue170006ILi0EEEPKc, symObjAddr: 0x4A8, symBinAddr: 0x100004070, symSize: 0x34 }
  - { offsetInCU: 0xDF3A, offset: 0xDF3A, size: 0x8, addend: 0x0, symName: __ZNSt3__16vectorINS_12basic_stringIcNS_11char_traitsIcEENS_9allocatorIcEEEENS4_IS6_EEEC1B8ue170006Ev, symObjAddr: 0x4DC, symBinAddr: 0x1000040A4, symSize: 0x2C }
  - { offsetInCU: 0xDF63, offset: 0xDF63, size: 0x8, addend: 0x0, symName: __ZNKSt3__16vectorINS_12basic_stringIcNS_11char_traitsIcEENS_9allocatorIcEEEENS4_IS6_EEE4sizeB8ue170006Ev, symObjAddr: 0x508, symBinAddr: 0x1000040D0, symSize: 0x28 }
  - { offsetInCU: 0xDF88, offset: 0xDF88, size: 0x8, addend: 0x0, symName: __ZN8Solution20generateRandomStringEiRKNSt3__112basic_stringIcNS0_11char_traitsIcEENS0_9allocatorIcEEEE, symObjAddr: 0x530, symBinAddr: 0x1000040F8, symSize: 0x15C }
  - { offsetInCU: 0xDFF5, offset: 0xDFF5, size: 0x8, addend: 0x0, symName: __ZN8Solution5validENSt3__112basic_stringIcNS0_11char_traitsIcEENS0_9allocatorIcEEEE, symObjAddr: 0x68C, symBinAddr: 0x100004254, symSize: 0x1AC }
  - { offsetInCU: 0xE04A, offset: 0xE04A, size: 0x8, addend: 0x0, symName: __ZNSt3__16vectorINS_12basic_stringIcNS_11char_traitsIcEENS_9allocatorIcEEEENS4_IS6_EEE9push_backB8ue170006ERKS6_, symObjAddr: 0x838, symBinAddr: 0x100004400, symSize: 0x6C }
  - { offsetInCU: 0xE080, offset: 0xE080, size: 0x8, addend: 0x0, symName: __ZNSt3__112basic_stringIcNS_11char_traitsIcEENS_9allocatorIcEEEC2B8ue170006ILi0EEEPKc, symObjAddr: 0x8A4, symBinAddr: 0x10000446C, symSize: 0x58 }
  - { offsetInCU: 0xE0C3, offset: 0xE0C3, size: 0x8, addend: 0x0, symName: __ZNSt3__117__compressed_pairINS_12basic_stringIcNS_11char_traitsIcEENS_9allocatorIcEEE5__repES5_EC1B8ue170006INS_18__default_init_tagESA_EEOT_OT0_, symObjAddr: 0x8FC, symBinAddr: 0x1000044C4, symSize: 0x3C }
  - { offsetInCU: 0xE11A, offset: 0xE11A, size: 0x8, addend: 0x0, symName: __ZNSt3__111char_traitsIcE6lengthB8ue170006EPKc, symObjAddr: 0x938, symBinAddr: 0x100004500, symSize: 0x34 }
  - { offsetInCU: 0xE13D, offset: 0xE13D, size: 0x8, addend: 0x0, symName: __ZNSt3__117__compressed_pairINS_12basic_stringIcNS_11char_traitsIcEENS_9allocatorIcEEE5__repES5_EC2B8ue170006INS_18__default_init_tagESA_EEOT_OT0_, symObjAddr: 0x96C, symBinAddr: 0x100004534, symSize: 0x3C }
  - { offsetInCU: 0xE194, offset: 0xE194, size: 0x8, addend: 0x0, symName: __ZNSt3__122__compressed_pair_elemINS_12basic_stringIcNS_11char_traitsIcEENS_9allocatorIcEEE5__repELi0ELb0EEC2B8ue170006ENS_18__default_init_tagE, symObjAddr: 0x9A8, symBinAddr: 0x100004570, symSize: 0x14 }
  - { offsetInCU: 0xE1C7, offset: 0xE1C7, size: 0x8, addend: 0x0, symName: __ZNSt3__122__compressed_pair_elemINS_9allocatorIcEELi1ELb1EEC2B8ue170006ENS_18__default_init_tagE, symObjAddr: 0x9BC, symBinAddr: 0x100004584, symSize: 0x2C }
  - { offsetInCU: 0xE1FA, offset: 0xE1FA, size: 0x8, addend: 0x0, symName: __ZNSt3__19allocatorIcEC2B8ue170006Ev, symObjAddr: 0x9E8, symBinAddr: 0x1000045B0, symSize: 0x2C }
  - { offsetInCU: 0xE223, offset: 0xE223, size: 0x8, addend: 0x0, symName: __ZNSt3__116__non_trivial_ifILb1ENS_9allocatorIcEEEC2B8ue170006Ev, symObjAddr: 0xA14, symBinAddr: 0x1000045DC, symSize: 0x14 }
  - { offsetInCU: 0xE24C, offset: 0xE24C, size: 0x8, addend: 0x0, symName: __ZNSt3__16vectorINS_12basic_stringIcNS_11char_traitsIcEENS_9allocatorIcEEEENS4_IS6_EEEC2B8ue170006Ev, symObjAddr: 0xA58, symBinAddr: 0x100004620, symSize: 0x4C }
  - { offsetInCU: 0xE27A, offset: 0xE27A, size: 0x8, addend: 0x0, symName: __ZNSt3__117__compressed_pairIPNS_12basic_stringIcNS_11char_traitsIcEENS_9allocatorIcEEEENS4_IS6_EEEC1B8ue170006IDnNS_18__default_init_tagEEEOT_OT0_, symObjAddr: 0xAA4, symBinAddr: 0x10000466C, symSize: 0x3C }
  - { offsetInCU: 0xE2D1, offset: 0xE2D1, size: 0x8, addend: 0x0, symName: __ZNSt3__117__compressed_pairIPNS_12basic_stringIcNS_11char_traitsIcEENS_9allocatorIcEEEENS4_IS6_EEEC2B8ue170006IDnNS_18__default_init_tagEEEOT_OT0_, symObjAddr: 0xAE0, symBinAddr: 0x1000046A8, symSize: 0x40 }
  - { offsetInCU: 0xE328, offset: 0xE328, size: 0x8, addend: 0x0, symName: __ZNSt3__122__compressed_pair_elemIPNS_12basic_stringIcNS_11char_traitsIcEENS_9allocatorIcEEEELi0ELb0EEC2B8ue170006IDnvEEOT_, symObjAddr: 0xB20, symBinAddr: 0x1000046E8, symSize: 0x1C }
  - { offsetInCU: 0xE369, offset: 0xE369, size: 0x8, addend: 0x0, symName: __ZNSt3__122__compressed_pair_elemINS_9allocatorINS_12basic_stringIcNS_11char_traitsIcEENS1_IcEEEEEELi1ELb1EEC2B8ue170006ENS_18__default_init_tagE, symObjAddr: 0xB3C, symBinAddr: 0x100004704, symSize: 0x2C }
  - { offsetInCU: 0xE39C, offset: 0xE39C, size: 0x8, addend: 0x0, symName: __ZNSt3__19allocatorINS_12basic_stringIcNS_11char_traitsIcEENS0_IcEEEEEC2B8ue170006Ev, symObjAddr: 0xB68, symBinAddr: 0x100004730, symSize: 0x2C }
  - { offsetInCU: 0xE3C5, offset: 0xE3C5, size: 0x8, addend: 0x0, symName: __ZNSt3__116__non_trivial_ifILb1ENS_9allocatorINS_12basic_stringIcNS_11char_traitsIcEENS1_IcEEEEEEEC2B8ue170006Ev, symObjAddr: 0xB94, symBinAddr: 0x10000475C, symSize: 0x14 }
  - { offsetInCU: 0xE3EE, offset: 0xE3EE, size: 0x8, addend: 0x0, symName: __ZNSt3__112basic_stringIcNS_11char_traitsIcEENS_9allocatorIcEEEC1B8ue170006Ev, symObjAddr: 0xBA8, symBinAddr: 0x100004770, symSize: 0x2C }
  - { offsetInCU: 0xE417, offset: 0xE417, size: 0x8, addend: 0x0, symName: __ZNKSt3__112basic_stringIcNS_11char_traitsIcEENS_9allocatorIcEEEixB8ue170006Em, symObjAddr: 0xBD4, symBinAddr: 0x10000479C, symSize: 0x30 }
  - { offsetInCU: 0xE44B, offset: 0xE44B, size: 0x8, addend: 0x0, symName: __ZNKSt3__112basic_stringIcNS_11char_traitsIcEENS_9allocatorIcEEE4sizeB8ue170006Ev, symObjAddr: 0xC04, symBinAddr: 0x1000047CC, symSize: 0x54 }
  - { offsetInCU: 0xE470, offset: 0xE470, size: 0x8, addend: 0x0, symName: __ZNSt3__112basic_stringIcNS_11char_traitsIcEENS_9allocatorIcEEEpLB8ue170006Ec, symObjAddr: 0xC58, symBinAddr: 0x100004820, symSize: 0x34 }
  - { offsetInCU: 0xE4A4, offset: 0xE4A4, size: 0x8, addend: 0x0, symName: __ZNSt3__112basic_stringIcNS_11char_traitsIcEENS_9allocatorIcEEEC2B8ue170006Ev, symObjAddr: 0xC8C, symBinAddr: 0x100004854, symSize: 0x48 }
  - { offsetInCU: 0xE4CD, offset: 0xE4CD, size: 0x8, addend: 0x0, symName: __ZNSt3__112basic_stringIcNS_11char_traitsIcEENS_9allocatorIcEEE14__default_initB8ue170006Ev, symObjAddr: 0xCD4, symBinAddr: 0x10000489C, symSize: 0x40 }
  - { offsetInCU: 0xE4F2, offset: 0xE4F2, size: 0x8, addend: 0x0, symName: __ZNSt3__117__compressed_pairINS_12basic_stringIcNS_11char_traitsIcEENS_9allocatorIcEEE5__repES5_E5firstB8ue170006Ev, symObjAddr: 0xD14, symBinAddr: 0x1000048DC, symSize: 0x24 }
  - { offsetInCU: 0xE517, offset: 0xE517, size: 0x8, addend: 0x0, symName: __ZNSt3__122__compressed_pair_elemINS_12basic_stringIcNS_11char_traitsIcEENS_9allocatorIcEEE5__repELi0ELb0EE5__getB8ue170006Ev, symObjAddr: 0xD38, symBinAddr: 0x100004900, symSize: 0x14 }
  - { offsetInCU: 0xE53C, offset: 0xE53C, size: 0x8, addend: 0x0, symName: __ZNKSt3__112basic_stringIcNS_11char_traitsIcEENS_9allocatorIcEEE4dataB8ue170006Ev, symObjAddr: 0xD4C, symBinAddr: 0x100004914, symSize: 0x28 }
  - { offsetInCU: 0xE561, offset: 0xE561, size: 0x8, addend: 0x0, symName: __ZNKSt3__112basic_stringIcNS_11char_traitsIcEENS_9allocatorIcEEE13__get_pointerB8ue170006Ev, symObjAddr: 0xD88, symBinAddr: 0x100004950, symSize: 0x54 }
  - { offsetInCU: 0xE586, offset: 0xE586, size: 0x8, addend: 0x0, symName: __ZNKSt3__112basic_stringIcNS_11char_traitsIcEENS_9allocatorIcEEE9__is_longB8ue170006Ev, symObjAddr: 0xDDC, symBinAddr: 0x1000049A4, symSize: 0x38 }
  - { offsetInCU: 0xE5AB, offset: 0xE5AB, size: 0x8, addend: 0x0, symName: __ZNKSt3__112basic_stringIcNS_11char_traitsIcEENS_9allocatorIcEEE18__get_long_pointerB8ue170006Ev, symObjAddr: 0xE14, symBinAddr: 0x1000049DC, symSize: 0x28 }
  - { offsetInCU: 0xE5D0, offset: 0xE5D0, size: 0x8, addend: 0x0, symName: __ZNKSt3__112basic_stringIcNS_11char_traitsIcEENS_9allocatorIcEEE19__get_short_pointerB8ue170006Ev, symObjAddr: 0xE3C, symBinAddr: 0x100004A04, symSize: 0x28 }
  - { offsetInCU: 0xE5F5, offset: 0xE5F5, size: 0x8, addend: 0x0, symName: __ZNKSt3__117__compressed_pairINS_12basic_stringIcNS_11char_traitsIcEENS_9allocatorIcEEE5__repES5_E5firstB8ue170006Ev, symObjAddr: 0xE64, symBinAddr: 0x100004A2C, symSize: 0x24 }
  - { offsetInCU: 0xE61A, offset: 0xE61A, size: 0x8, addend: 0x0, symName: __ZNKSt3__122__compressed_pair_elemINS_12basic_stringIcNS_11char_traitsIcEENS_9allocatorIcEEE5__repELi0ELb0EE5__getB8ue170006Ev, symObjAddr: 0xE88, symBinAddr: 0x100004A50, symSize: 0x14 }
  - { offsetInCU: 0xE63F, offset: 0xE63F, size: 0x8, addend: 0x0, symName: __ZNSt3__114pointer_traitsIPKcE10pointer_toB8ue170006ERS1_, symObjAddr: 0xE9C, symBinAddr: 0x100004A64, symSize: 0x14 }
  - { offsetInCU: 0xE662, offset: 0xE662, size: 0x8, addend: 0x0, symName: __ZNKSt3__112basic_stringIcNS_11char_traitsIcEENS_9allocatorIcEEE15__get_long_sizeB8ue170006Ev, symObjAddr: 0xEB0, symBinAddr: 0x100004A78, symSize: 0x28 }
  - { offsetInCU: 0xE687, offset: 0xE687, size: 0x8, addend: 0x0, symName: __ZNKSt3__112basic_stringIcNS_11char_traitsIcEENS_9allocatorIcEEE16__get_short_sizeB8ue170006Ev, symObjAddr: 0xED8, symBinAddr: 0x100004AA0, symSize: 0x34 }
  - { offsetInCU: 0xE6E8, offset: 0xE6E8, size: 0x8, addend: 0x0, symName: __ZNSt3__15stackIcNS_5dequeIcNS_9allocatorIcEEEEEC1B8ue170006Ev, symObjAddr: 0xF0C, symBinAddr: 0x100004AD4, symSize: 0x2C }
  - { offsetInCU: 0xE711, offset: 0xE711, size: 0x8, addend: 0x0, symName: __ZNKSt3__112basic_stringIcNS_11char_traitsIcEENS_9allocatorIcEEE6lengthB8ue170006Ev, symObjAddr: 0xF38, symBinAddr: 0x100004B00, symSize: 0x24 }
  - { offsetInCU: 0xE736, offset: 0xE736, size: 0x8, addend: 0x0, symName: __ZNSt3__112basic_stringIcNS_11char_traitsIcEENS_9allocatorIcEEEixB8ue170006Em, symObjAddr: 0xF5C, symBinAddr: 0x100004B24, symSize: 0x30 }
  - { offsetInCU: 0xE76A, offset: 0xE76A, size: 0x8, addend: 0x0, symName: __ZNKSt3__15stackIcNS_5dequeIcNS_9allocatorIcEEEEE5emptyB8ue170006Ev, symObjAddr: 0xF8C, symBinAddr: 0x100004B54, symSize: 0x28 }
  - { offsetInCU: 0xE78F, offset: 0xE78F, size: 0x8, addend: 0x0, symName: __ZNSt3__15stackIcNS_5dequeIcNS_9allocatorIcEEEEE4pushB8ue170006ERKc, symObjAddr: 0xFB4, symBinAddr: 0x100004B7C, symSize: 0x2C }
  - { offsetInCU: 0xE7C3, offset: 0xE7C3, size: 0x8, addend: 0x0, symName: __ZNSt3__15stackIcNS_5dequeIcNS_9allocatorIcEEEEE3popB8ue170006Ev, symObjAddr: 0xFE0, symBinAddr: 0x100004BA8, symSize: 0x24 }
  - { offsetInCU: 0xE7E8, offset: 0xE7E8, size: 0x8, addend: 0x0, symName: __ZNSt3__15stackIcNS_5dequeIcNS_9allocatorIcEEEEED1Ev, symObjAddr: 0x1004, symBinAddr: 0x100004BCC, symSize: 0x2C }
  - { offsetInCU: 0xE813, offset: 0xE813, size: 0x8, addend: 0x0, symName: __ZNSt3__15stackIcNS_5dequeIcNS_9allocatorIcEEEEEC2B8ue170006Ev, symObjAddr: 0x1030, symBinAddr: 0x100004BF8, symSize: 0x2C }
  - { offsetInCU: 0xE83C, offset: 0xE83C, size: 0x8, addend: 0x0, symName: __ZNSt3__15dequeIcNS_9allocatorIcEEEC1B8ue170006Ev, symObjAddr: 0x105C, symBinAddr: 0x100004C24, symSize: 0x2C }
  - { offsetInCU: 0xE865, offset: 0xE865, size: 0x8, addend: 0x0, symName: __ZNSt3__15dequeIcNS_9allocatorIcEEEC2B8ue170006Ev, symObjAddr: 0x1088, symBinAddr: 0x100004C50, symSize: 0x5C }
  - { offsetInCU: 0xE88E, offset: 0xE88E, size: 0x8, addend: 0x0, symName: __ZNSt3__114__split_bufferIPcNS_9allocatorIS1_EEEC1B8ue170006Ev, symObjAddr: 0x10E4, symBinAddr: 0x100004CAC, symSize: 0x2C }
  - { offsetInCU: 0xE8BC, offset: 0xE8BC, size: 0x8, addend: 0x0, symName: __ZNSt3__117__compressed_pairImNS_9allocatorIcEEEC1B8ue170006IiNS_18__default_init_tagEEEOT_OT0_, symObjAddr: 0x1110, symBinAddr: 0x100004CD8, symSize: 0x3C }
  - { offsetInCU: 0xE913, offset: 0xE913, size: 0x8, addend: 0x0, symName: __ZNKSt3__15dequeIcNS_9allocatorIcEEE14__annotate_newB8ue170006Em, symObjAddr: 0x114C, symBinAddr: 0x100004D14, symSize: 0xC8 }
  - { offsetInCU: 0xE947, offset: 0xE947, size: 0x8, addend: 0x0, symName: __ZNSt3__114__split_bufferIPcNS_9allocatorIS1_EEEC2B8ue170006Ev, symObjAddr: 0x1214, symBinAddr: 0x100004DDC, symSize: 0x50 }
  - { offsetInCU: 0xE970, offset: 0xE970, size: 0x8, addend: 0x0, symName: __ZNSt3__117__compressed_pairIPPcNS_9allocatorIS1_EEEC1B8ue170006IDnNS_18__default_init_tagEEEOT_OT0_, symObjAddr: 0x1264, symBinAddr: 0x100004E2C, symSize: 0x3C }
  - { offsetInCU: 0xE9C7, offset: 0xE9C7, size: 0x8, addend: 0x0, symName: __ZNSt3__117__compressed_pairIPPcNS_9allocatorIS1_EEEC2B8ue170006IDnNS_18__default_init_tagEEEOT_OT0_, symObjAddr: 0x12A0, symBinAddr: 0x100004E68, symSize: 0x40 }
  - { offsetInCU: 0xEA1E, offset: 0xEA1E, size: 0x8, addend: 0x0, symName: __ZNSt3__122__compressed_pair_elemIPPcLi0ELb0EEC2B8ue170006IDnvEEOT_, symObjAddr: 0x12E0, symBinAddr: 0x100004EA8, symSize: 0x1C }
  - { offsetInCU: 0xEA5F, offset: 0xEA5F, size: 0x8, addend: 0x0, symName: __ZNSt3__122__compressed_pair_elemINS_9allocatorIPcEELi1ELb1EEC2B8ue170006ENS_18__default_init_tagE, symObjAddr: 0x12FC, symBinAddr: 0x100004EC4, symSize: 0x2C }
  - { offsetInCU: 0xEA92, offset: 0xEA92, size: 0x8, addend: 0x0, symName: __ZNSt3__19allocatorIPcEC2B8ue170006Ev, symObjAddr: 0x1328, symBinAddr: 0x100004EF0, symSize: 0x2C }
  - { offsetInCU: 0xEABB, offset: 0xEABB, size: 0x8, addend: 0x0, symName: __ZNSt3__116__non_trivial_ifILb1ENS_9allocatorIPcEEEC2B8ue170006Ev, symObjAddr: 0x1354, symBinAddr: 0x100004F1C, symSize: 0x14 }
  - { offsetInCU: 0xEAE4, offset: 0xEAE4, size: 0x8, addend: 0x0, symName: __ZNSt3__117__compressed_pairImNS_9allocatorIcEEEC2B8ue170006IiNS_18__default_init_tagEEEOT_OT0_, symObjAddr: 0x1368, symBinAddr: 0x100004F30, symSize: 0x40 }
  - { offsetInCU: 0xEB3B, offset: 0xEB3B, size: 0x8, addend: 0x0, symName: __ZNSt3__122__compressed_pair_elemImLi0ELb0EEC2B8ue170006IivEEOT_, symObjAddr: 0x13A8, symBinAddr: 0x100004F70, symSize: 0x24 }
  - { offsetInCU: 0xEB7C, offset: 0xEB7C, size: 0x8, addend: 0x0, symName: __ZNKSt3__15dequeIcNS_9allocatorIcEEE18__annotate_from_toB8ue170006EmmNS3_22__asan_annotation_typeENS3_23__asan_annotation_placeE, symObjAddr: 0x13CC, symBinAddr: 0x100004F94, symSize: 0x580 }
  - { offsetInCU: 0xED39, offset: 0xED39, size: 0x8, addend: 0x0, symName: __ZNKSt3__114__split_bufferIPcNS_9allocatorIS1_EEE4sizeB8ue170006Ev, symObjAddr: 0x194C, symBinAddr: 0x100005514, symSize: 0x28 }
  - { offsetInCU: 0xED5E, offset: 0xED5E, size: 0x8, addend: 0x0, symName: __ZNKSt3__114__split_bufferIPcNS_9allocatorIS1_EEE5beginB8ue170006Ev, symObjAddr: 0x1974, symBinAddr: 0x10000553C, symSize: 0x18 }
  - { offsetInCU: 0xED83, offset: 0xED83, size: 0x8, addend: 0x0, symName: __ZNKSt3__15dequeIcNS_9allocatorIcEEE4sizeB8ue170006Ev, symObjAddr: 0x198C, symBinAddr: 0x100005554, symSize: 0x28 }
  - { offsetInCU: 0xEDA8, offset: 0xEDA8, size: 0x8, addend: 0x0, symName: __ZNKSt3__15dequeIcNS_9allocatorIcEEE5emptyB8ue170006Ev, symObjAddr: 0x19B4, symBinAddr: 0x10000557C, symSize: 0x30 }
  - { offsetInCU: 0xEDCD, offset: 0xEDCD, size: 0x8, addend: 0x0, symName: __ZNKSt3__15dequeIcNS_9allocatorIcEEE44__annotate_double_ended_contiguous_containerB8ue170006EPKvS5_S5_S5_S5_S5_, symObjAddr: 0x19F8, symBinAddr: 0x1000055C0, symSize: 0x28 }
  - { offsetInCU: 0xEE3A, offset: 0xEE3A, size: 0x8, addend: 0x0, symName: __ZNKSt3__15dequeIcNS_9allocatorIcEEE6__sizeB8ue170006Ev, symObjAddr: 0x1A20, symBinAddr: 0x1000055E8, symSize: 0x28 }
  - { offsetInCU: 0xEE5F, offset: 0xEE5F, size: 0x8, addend: 0x0, symName: __ZNKSt3__117__compressed_pairImNS_9allocatorIcEEE5firstB8ue170006Ev, symObjAddr: 0x1A48, symBinAddr: 0x100005610, symSize: 0x24 }
  - { offsetInCU: 0xEE84, offset: 0xEE84, size: 0x8, addend: 0x0, symName: __ZNKSt3__122__compressed_pair_elemImLi0ELb0EE5__getB8ue170006Ev, symObjAddr: 0x1A6C, symBinAddr: 0x100005634, symSize: 0x14 }
  - { offsetInCU: 0xEEA9, offset: 0xEEA9, size: 0x8, addend: 0x0, symName: __ZNSt3__112basic_stringIcNS_11char_traitsIcEENS_9allocatorIcEEE13__get_pointerB8ue170006Ev, symObjAddr: 0x1A80, symBinAddr: 0x100005648, symSize: 0x54 }
  - { offsetInCU: 0xEECE, offset: 0xEECE, size: 0x8, addend: 0x0, symName: __ZNSt3__112basic_stringIcNS_11char_traitsIcEENS_9allocatorIcEEE18__get_long_pointerB8ue170006Ev, symObjAddr: 0x1AD4, symBinAddr: 0x10000569C, symSize: 0x28 }
  - { offsetInCU: 0xEEF3, offset: 0xEEF3, size: 0x8, addend: 0x0, symName: __ZNSt3__112basic_stringIcNS_11char_traitsIcEENS_9allocatorIcEEE19__get_short_pointerB8ue170006Ev, symObjAddr: 0x1AFC, symBinAddr: 0x1000056C4, symSize: 0x28 }
  - { offsetInCU: 0xEF18, offset: 0xEF18, size: 0x8, addend: 0x0, symName: __ZNSt3__114pointer_traitsIPcE10pointer_toB8ue170006ERc, symObjAddr: 0x1B24, symBinAddr: 0x1000056EC, symSize: 0x14 }
  - { offsetInCU: 0xEF3A, offset: 0xEF3A, size: 0x8, addend: 0x0, symName: __ZNSt3__15dequeIcNS_9allocatorIcEEE9push_backERKc, symObjAddr: 0x1B38, symBinAddr: 0x100005700, symSize: 0xAC }
  - { offsetInCU: 0xEF7F, offset: 0xEF7F, size: 0x8, addend: 0x0, symName: __ZNSt3__15dequeIcNS_9allocatorIcEEE7__allocB8ue170006Ev, symObjAddr: 0x1BE4, symBinAddr: 0x1000057AC, symSize: 0x28 }
  - { offsetInCU: 0xEFA4, offset: 0xEFA4, size: 0x8, addend: 0x0, symName: __ZNKSt3__15dequeIcNS_9allocatorIcEEE12__back_spareB8ue170006Ev, symObjAddr: 0x1C0C, symBinAddr: 0x1000057D4, symSize: 0x54 }
  - { offsetInCU: 0xEFC8, offset: 0xEFC8, size: 0x8, addend: 0x0, symName: __ZNSt3__15dequeIcNS_9allocatorIcEEE19__add_back_capacityEv, symObjAddr: 0x1C60, symBinAddr: 0x100005828, symSize: 0x34C }
  - { offsetInCU: 0xF07F, offset: 0xF07F, size: 0x8, addend: 0x0, symName: __ZNKSt3__15dequeIcNS_9allocatorIcEEE24__annotate_increase_backB8ue170006Em, symObjAddr: 0x1FAC, symBinAddr: 0x100005B74, symSize: 0x7C }
  - { offsetInCU: 0xF0B3, offset: 0xF0B3, size: 0x8, addend: 0x0, symName: __ZNSt3__116allocator_traitsINS_9allocatorIcEEE9constructB8ue170006IcJRKcEvEEvRS2_PT_DpOT0_, symObjAddr: 0x2028, symBinAddr: 0x100005BF0, symSize: 0x34 }
  - { offsetInCU: 0xF10A, offset: 0xF10A, size: 0x8, addend: 0x0, symName: __ZNSt3__15dequeIcNS_9allocatorIcEEE3endB8ue170006Ev, symObjAddr: 0x205C, symBinAddr: 0x100005C24, symSize: 0xCC }
  - { offsetInCU: 0xF14D, offset: 0xF14D, size: 0x8, addend: 0x0, symName: __ZNKSt3__116__deque_iteratorIcPcRcPS1_lLl4096EEdeB8ue170006Ev, symObjAddr: 0x2128, symBinAddr: 0x100005CF0, symSize: 0x18 }
  - { offsetInCU: 0xF172, offset: 0xF172, size: 0x8, addend: 0x0, symName: __ZNSt3__15dequeIcNS_9allocatorIcEEE6__sizeB8ue170006Ev, symObjAddr: 0x2140, symBinAddr: 0x100005D08, symSize: 0x28 }
  - { offsetInCU: 0xF197, offset: 0xF197, size: 0x8, addend: 0x0, symName: __ZNSt3__117__compressed_pairImNS_9allocatorIcEEE6secondB8ue170006Ev, symObjAddr: 0x2168, symBinAddr: 0x100005D30, symSize: 0x24 }
  - { offsetInCU: 0xF1BC, offset: 0xF1BC, size: 0x8, addend: 0x0, symName: __ZNSt3__122__compressed_pair_elemINS_9allocatorIcEELi1ELb1EE5__getB8ue170006Ev, symObjAddr: 0x218C, symBinAddr: 0x100005D54, symSize: 0x14 }
  - { offsetInCU: 0xF1E1, offset: 0xF1E1, size: 0x8, addend: 0x0, symName: __ZNKSt3__15dequeIcNS_9allocatorIcEEE10__capacityB8ue170006Ev, symObjAddr: 0x21A0, symBinAddr: 0x100005D68, symSize: 0x60 }
  - { offsetInCU: 0xF206, offset: 0xF206, size: 0x8, addend: 0x0, symName: __ZNKSt3__15dequeIcNS_9allocatorIcEEE13__front_spareB8ue170006Ev, symObjAddr: 0x2200, symBinAddr: 0x100005DC8, symSize: 0x18 }
  - { offsetInCU: 0xF22B, offset: 0xF22B, size: 0x8, addend: 0x0, symName: __ZNSt3__114__split_bufferIPcNS_9allocatorIS1_EEE5frontB8ue170006Ev, symObjAddr: 0x2218, symBinAddr: 0x100005DE0, symSize: 0x18 }
  - { offsetInCU: 0xF250, offset: 0xF250, size: 0x8, addend: 0x0, symName: __ZNSt3__114__split_bufferIPcNS_9allocatorIS1_EEE9pop_frontB8ue170006Ev, symObjAddr: 0x2230, symBinAddr: 0x100005DF8, symSize: 0x2C }
  - { offsetInCU: 0xF274, offset: 0xF274, size: 0x8, addend: 0x0, symName: __ZNSt3__114__split_bufferIPcNS_9allocatorIS1_EEE9push_backB8ue170006ERKS1_, symObjAddr: 0x225C, symBinAddr: 0x100005E24, symSize: 0x260 }
  - { offsetInCU: 0xF2EC, offset: 0xF2EC, size: 0x8, addend: 0x0, symName: __ZNKSt3__114__split_bufferIPcNS_9allocatorIS1_EEE8capacityB8ue170006Ev, symObjAddr: 0x24BC, symBinAddr: 0x100006084, symSize: 0x40 }
  - { offsetInCU: 0xF311, offset: 0xF311, size: 0x8, addend: 0x0, symName: __ZNKSt3__114__split_bufferIPcNS_9allocatorIS1_EEE12__back_spareB8ue170006Ev, symObjAddr: 0x24FC, symBinAddr: 0x1000060C4, symSize: 0x40 }
  - { offsetInCU: 0xF335, offset: 0xF335, size: 0x8, addend: 0x0, symName: __ZNSt3__114__split_bufferIPcNS_9allocatorIS1_EEE9push_backEOS1_, symObjAddr: 0x253C, symBinAddr: 0x100006104, symSize: 0x260 }
  - { offsetInCU: 0xF3AD, offset: 0xF3AD, size: 0x8, addend: 0x0, symName: __ZNSt3__116allocator_traitsINS_9allocatorIcEEE8allocateB8ue170006ERS2_m, symObjAddr: 0x279C, symBinAddr: 0x100006364, symSize: 0x2C }
  - { offsetInCU: 0xF3DF, offset: 0xF3DF, size: 0x8, addend: 0x0, symName: __ZNSt3__114__split_bufferIPcNS_9allocatorIS1_EEE10push_frontEOS1_, symObjAddr: 0x27C8, symBinAddr: 0x100006390, symSize: 0x25C }
  - { offsetInCU: 0xF457, offset: 0xF457, size: 0x8, addend: 0x0, symName: __ZNKSt3__15dequeIcNS_9allocatorIcEEE22__annotate_whole_blockB8ue170006EmNS3_22__asan_annotation_typeE, symObjAddr: 0x2A24, symBinAddr: 0x1000065EC, symSize: 0xAC }
  - { offsetInCU: 0xF4C7, offset: 0xF4C7, size: 0x8, addend: 0x0, symName: __ZNSt3__114__split_bufferIPcNS_9allocatorIS1_EEE7__allocB8ue170006Ev, symObjAddr: 0x2AFC, symBinAddr: 0x1000066C4, symSize: 0x28 }
  - { offsetInCU: 0xF4EC, offset: 0xF4EC, size: 0x8, addend: 0x0, symName: __ZNSt3__114__split_bufferIPcRNS_9allocatorIS1_EEEC1EmmS4_, symObjAddr: 0x2B24, symBinAddr: 0x1000066EC, symSize: 0x44 }
  - { offsetInCU: 0xF546, offset: 0xF546, size: 0x8, addend: 0x0, symName: __ZNSt3__122__allocator_destructorINS_9allocatorIcEEEC1B8ue170006ERS2_m, symObjAddr: 0x2B68, symBinAddr: 0x100006730, symSize: 0x3C }
  - { offsetInCU: 0xF608, offset: 0xF608, size: 0x8, addend: 0x0, symName: __ZNSt3__110unique_ptrIPcNS_22__allocator_destructorINS_9allocatorIcEEEEEC1B8ue170006ILb1EvEES1_NS_16__dependent_typeINS_27__unique_ptr_deleter_sfinaeIS5_EEXT_EE20__good_rval_ref_typeE, symObjAddr: 0x2BA4, symBinAddr: 0x10000676C, symSize: 0x3C }
  - { offsetInCU: 0xF657, offset: 0xF657, size: 0x8, addend: 0x0, symName: __ZNSt3__114__split_bufferIPcRNS_9allocatorIS1_EEE9push_backEOS1_, symObjAddr: 0x2BE0, symBinAddr: 0x1000067A8, symSize: 0x260 }
  - { offsetInCU: 0xF6CF, offset: 0xF6CF, size: 0x8, addend: 0x0, symName: __ZNKSt3__110unique_ptrIPcNS_22__allocator_destructorINS_9allocatorIcEEEEE3getB8ue170006Ev, symObjAddr: 0x2E40, symBinAddr: 0x100006A08, symSize: 0x28 }
  - { offsetInCU: 0xF6F4, offset: 0xF6F4, size: 0x8, addend: 0x0, symName: __ZNSt3__110unique_ptrIPcNS_22__allocator_destructorINS_9allocatorIcEEEEE7releaseB8ue170006Ev, symObjAddr: 0x2E68, symBinAddr: 0x100006A30, symSize: 0x44 }
  - { offsetInCU: 0xF728, offset: 0xF728, size: 0x8, addend: 0x0, symName: __ZNSt3__114__split_bufferIPcNS_9allocatorIS1_EEE3endB8ue170006Ev, symObjAddr: 0x2EAC, symBinAddr: 0x100006A74, symSize: 0x18 }
  - { offsetInCU: 0xF74D, offset: 0xF74D, size: 0x8, addend: 0x0, symName: __ZNSt3__114__split_bufferIPcNS_9allocatorIS1_EEE5beginB8ue170006Ev, symObjAddr: 0x2EC4, symBinAddr: 0x100006A8C, symSize: 0x18 }
  - { offsetInCU: 0xF771, offset: 0xF771, size: 0x8, addend: 0x0, symName: __ZNSt3__114__split_bufferIPcRNS_9allocatorIS1_EEE10push_frontERKS1_, symObjAddr: 0x2EDC, symBinAddr: 0x100006AA4, symSize: 0x25C }
  - { offsetInCU: 0xF7E9, offset: 0xF7E9, size: 0x8, addend: 0x0, symName: __ZNSt3__114__split_bufferIPcNS_9allocatorIS1_EEE9__end_capB8ue170006Ev, symObjAddr: 0x3174, symBinAddr: 0x100006D3C, symSize: 0x28 }
  - { offsetInCU: 0xF80E, offset: 0xF80E, size: 0x8, addend: 0x0, symName: __ZNSt3__114__split_bufferIPcRNS_9allocatorIS1_EEE9__end_capB8ue170006Ev, symObjAddr: 0x319C, symBinAddr: 0x100006D64, symSize: 0x28 }
  - { offsetInCU: 0xF833, offset: 0xF833, size: 0x8, addend: 0x0, symName: __ZNSt3__110unique_ptrIPcNS_22__allocator_destructorINS_9allocatorIcEEEEED1B8ue170006Ev, symObjAddr: 0x31C4, symBinAddr: 0x100006D8C, symSize: 0x2C }
  - { offsetInCU: 0xF85C, offset: 0xF85C, size: 0x8, addend: 0x0, symName: __ZNSt3__114__split_bufferIPcRNS_9allocatorIS1_EEED1Ev, symObjAddr: 0x31F0, symBinAddr: 0x100006DB8, symSize: 0x2C }
  - { offsetInCU: 0xF887, offset: 0xF887, size: 0x8, addend: 0x0, symName: __ZNSt3__114__split_bufferIPcNS_9allocatorIS1_EEE19__destruct_at_beginB8ue170006EPS1_, symObjAddr: 0x321C, symBinAddr: 0x100006DE4, symSize: 0x2C }
  - { offsetInCU: 0xF8BA, offset: 0xF8BA, size: 0x8, addend: 0x0, symName: __ZNSt3__114__split_bufferIPcNS_9allocatorIS1_EEE19__destruct_at_beginEPS1_NS_17integral_constantIbLb1EEE, symObjAddr: 0x3248, symBinAddr: 0x100006E10, symSize: 0x20 }
  - { offsetInCU: 0xF8F8, offset: 0xF8F8, size: 0x8, addend: 0x0, symName: __ZNSt3__114__split_bufferIPcRNS_9allocatorIS1_EEE18__construct_at_endINS_13move_iteratorIPS1_EEEENS_9enable_ifIXsr31__has_forward_iterator_categoryIT_EE5valueEvE4typeESB_SB_, symObjAddr: 0x32A8, symBinAddr: 0x100006E70, symSize: 0x60 }
  - { offsetInCU: 0xF944, offset: 0xF944, size: 0x8, addend: 0x0, symName: __ZNSt3__113move_iteratorIPPcEC1B8ue170006ES2_, symObjAddr: 0x3308, symBinAddr: 0x100006ED0, symSize: 0x34 }
  - { offsetInCU: 0xF97B, offset: 0xF97B, size: 0x8, addend: 0x0, symName: __ZNSt3__116allocator_traitsINS_9allocatorIPcEEE9constructB8ue170006IS2_JRKS2_EvEEvRS3_PT_DpOT0_, symObjAddr: 0x333C, symBinAddr: 0x100006F04, symSize: 0x34 }
  - { offsetInCU: 0xF9F5, offset: 0xF9F5, size: 0x8, addend: 0x0, symName: __ZNKSt3__114__move_trivialclB8ue170006IPcS2_Li0EEENS_4pairIPT_PT0_EES5_S5_S7_, symObjAddr: 0x3520, symBinAddr: 0x1000070E8, symSize: 0x48 }
  - { offsetInCU: 0xFA61, offset: 0xFA61, size: 0x8, addend: 0x0, symName: __ZNSt3__14pairIPPcS2_EC1B8ue170006IRS2_S2_LPv0EEEOT_OT0_, symObjAddr: 0x3748, symBinAddr: 0x100007310, symSize: 0x3C }
  - { offsetInCU: 0xFABE, offset: 0xFABE, size: 0x8, addend: 0x0, symName: __ZNSt3__14pairIPPcS2_EC2B8ue170006IRS2_S2_LPv0EEEOT_OT0_, symObjAddr: 0x3784, symBinAddr: 0x10000734C, symSize: 0x34 }
  - { offsetInCU: 0xFB1B, offset: 0xFB1B, size: 0x8, addend: 0x0, symName: __ZNSt3__118__unwrap_iter_implIPPcLb1EE8__unwrapB8ue170006ES2_, symObjAddr: 0x37B8, symBinAddr: 0x100007380, symSize: 0x24 }
  - { offsetInCU: 0xFB3E, offset: 0xFB3E, size: 0x8, addend: 0x0, symName: __ZNSt3__14pairIPPcS2_EC1B8ue170006IS2_S2_LPv0EEEOT_OT0_, symObjAddr: 0x37DC, symBinAddr: 0x1000073A4, symSize: 0x3C }
  - { offsetInCU: 0xFB9B, offset: 0xFB9B, size: 0x8, addend: 0x0, symName: __ZNSt3__14pairIPPcS2_EC2B8ue170006IS2_S2_LPv0EEEOT_OT0_, symObjAddr: 0x3818, symBinAddr: 0x1000073E0, symSize: 0x34 }
  - { offsetInCU: 0xFBF8, offset: 0xFBF8, size: 0x8, addend: 0x0, symName: __ZNSt3__118__unwrap_iter_implIPPcLb1EE8__rewrapB8ue170006ES2_S2_, symObjAddr: 0x384C, symBinAddr: 0x100007414, symSize: 0x50 }
  - { offsetInCU: 0xFC28, offset: 0xFC28, size: 0x8, addend: 0x0, symName: __ZNSt3__114__split_bufferIPcRNS_9allocatorIS1_EEE28__construct_at_end_with_sizeINS_13move_iteratorIPS1_EEEEvT_m, symObjAddr: 0x389C, symBinAddr: 0x100007464, symSize: 0xDC }
  - { offsetInCU: 0xFC8D, offset: 0xFC8D, size: 0x8, addend: 0x0, symName: __ZNSt3__114__split_bufferIPcRNS_9allocatorIS1_EEE21_ConstructTransactionC1B8ue170006EPPS1_m, symObjAddr: 0x39B4, symBinAddr: 0x10000757C, symSize: 0x3C }
  - { offsetInCU: 0xFCD2, offset: 0xFCD2, size: 0x8, addend: 0x0, symName: __ZNSt3__116allocator_traitsINS_9allocatorIPcEEE9constructB8ue170006IS2_JS2_EvEEvRS3_PT_DpOT0_, symObjAddr: 0x39F0, symBinAddr: 0x1000075B8, symSize: 0x34 }
  - { offsetInCU: 0xFD29, offset: 0xFD29, size: 0x8, addend: 0x0, symName: __ZNSt3__114__split_bufferIPcRNS_9allocatorIS1_EEE7__allocB8ue170006Ev, symObjAddr: 0x3A24, symBinAddr: 0x1000075EC, symSize: 0x28 }
  - { offsetInCU: 0xFD4E, offset: 0xFD4E, size: 0x8, addend: 0x0, symName: __ZNKSt3__113move_iteratorIPPcEdeB8ue170006Ev, symObjAddr: 0x3A4C, symBinAddr: 0x100007614, symSize: 0x18 }
  - { offsetInCU: 0xFD73, offset: 0xFD73, size: 0x8, addend: 0x0, symName: __ZNSt3__113move_iteratorIPPcEppB8ue170006Ev, symObjAddr: 0x3A64, symBinAddr: 0x10000762C, symSize: 0x20 }
  - { offsetInCU: 0xFD98, offset: 0xFD98, size: 0x8, addend: 0x0, symName: __ZNSt3__114__split_bufferIPcRNS_9allocatorIS1_EEE21_ConstructTransactionD1B8ue170006Ev, symObjAddr: 0x3A84, symBinAddr: 0x10000764C, symSize: 0x2C }
  - { offsetInCU: 0xFDC1, offset: 0xFDC1, size: 0x8, addend: 0x0, symName: __ZNSt3__114__split_bufferIPcRNS_9allocatorIS1_EEE21_ConstructTransactionC2B8ue170006EPPS1_m, symObjAddr: 0x3AB0, symBinAddr: 0x100007678, symSize: 0x44 }
  - { offsetInCU: 0xFE06, offset: 0xFE06, size: 0x8, addend: 0x0, symName: __ZNSt3__19allocatorIPcE9constructB8ue170006IS1_JS1_EEEvPT_DpOT0_, symObjAddr: 0x3AF4, symBinAddr: 0x1000076BC, symSize: 0x28 }
  - { offsetInCU: 0xFE5B, offset: 0xFE5B, size: 0x8, addend: 0x0, symName: __ZNSt3__117__compressed_pairIPPcRNS_9allocatorIS1_EEE6secondB8ue170006Ev, symObjAddr: 0x3B1C, symBinAddr: 0x1000076E4, symSize: 0x28 }
  - { offsetInCU: 0xFE80, offset: 0xFE80, size: 0x8, addend: 0x0, symName: __ZNSt3__122__compressed_pair_elemIRNS_9allocatorIPcEELi1ELb0EE5__getB8ue170006Ev, symObjAddr: 0x3B44, symBinAddr: 0x10000770C, symSize: 0x18 }
  - { offsetInCU: 0xFEA5, offset: 0xFEA5, size: 0x8, addend: 0x0, symName: __ZNSt3__114__split_bufferIPcRNS_9allocatorIS1_EEE21_ConstructTransactionD2B8ue170006Ev, symObjAddr: 0x3B5C, symBinAddr: 0x100007724, symSize: 0x20 }
  - { offsetInCU: 0xFECE, offset: 0xFECE, size: 0x8, addend: 0x0, symName: __ZNKSt3__113move_iteratorIPPcE4baseB8ue170006Ev, symObjAddr: 0x3BF4, symBinAddr: 0x1000077BC, symSize: 0x18 }
  - { offsetInCU: 0xFEF3, offset: 0xFEF3, size: 0x8, addend: 0x0, symName: __ZNSt3__113move_iteratorIPPcEC2B8ue170006ES2_, symObjAddr: 0x3C0C, symBinAddr: 0x1000077D4, symSize: 0x20 }
  - { offsetInCU: 0xFF2A, offset: 0xFF2A, size: 0x8, addend: 0x0, symName: __ZNSt3__19allocatorIPcE9constructB8ue170006IS1_JRKS1_EEEvPT_DpOT0_, symObjAddr: 0x3C2C, symBinAddr: 0x1000077F4, symSize: 0x28 }
  - { offsetInCU: 0xFF7F, offset: 0xFF7F, size: 0x8, addend: 0x0, symName: __ZNKSt3__114__split_bufferIPcNS_9allocatorIS1_EEE9__end_capB8ue170006Ev, symObjAddr: 0x3C54, symBinAddr: 0x10000781C, symSize: 0x28 }
  - { offsetInCU: 0xFFA4, offset: 0xFFA4, size: 0x8, addend: 0x0, symName: __ZNKSt3__117__compressed_pairIPPcNS_9allocatorIS1_EEE5firstB8ue170006Ev, symObjAddr: 0x3C7C, symBinAddr: 0x100007844, symSize: 0x24 }
  - { offsetInCU: 0xFFC9, offset: 0xFFC9, size: 0x8, addend: 0x0, symName: __ZNKSt3__122__compressed_pair_elemIPPcLi0ELb0EE5__getB8ue170006Ev, symObjAddr: 0x3CA0, symBinAddr: 0x100007868, symSize: 0x14 }
  - { offsetInCU: 0xFFEE, offset: 0xFFEE, size: 0x8, addend: 0x0, symName: __ZNSt3__19allocatorIcE8allocateB8ue170006Em, symObjAddr: 0x3CB4, symBinAddr: 0x10000787C, symSize: 0x58 }
  - { offsetInCU: 0x1002B, offset: 0x1002B, size: 0x8, addend: 0x0, symName: __ZNSt3__116allocator_traitsINS_9allocatorIcEEE8max_sizeB8ue170006IS2_vEEmRKS2_, symObjAddr: 0x3D0C, symBinAddr: 0x1000078D4, symSize: 0x24 }
  - { offsetInCU: 0x10059, offset: 0x10059, size: 0x8, addend: 0x0, symName: __ZNKSt3__19allocatorIcE8max_sizeB8ue170006Ev, symObjAddr: 0x3D8C, symBinAddr: 0x100007954, symSize: 0x14 }
  - { offsetInCU: 0x10088, offset: 0x10088, size: 0x8, addend: 0x0, symName: __ZNKSt3__123__move_backward_trivialclB8ue170006IPcS2_Li0EEENS_4pairIPT_PT0_EES5_S5_S7_, symObjAddr: 0x3F40, symBinAddr: 0x100007B08, symSize: 0x48 }
  - { offsetInCU: 0x100EF, offset: 0x100EF, size: 0x8, addend: 0x0, symName: __ZNSt3__14pairIPPcS2_EC1B8ue170006IRS2_S5_LPv0EEEOT_OT0_, symObjAddr: 0x4050, symBinAddr: 0x100007C18, symSize: 0x3C }
  - { offsetInCU: 0x1014C, offset: 0x1014C, size: 0x8, addend: 0x0, symName: __ZNSt3__14pairIPPcS2_EC2B8ue170006IRS2_S5_LPv0EEEOT_OT0_, symObjAddr: 0x408C, symBinAddr: 0x100007C54, symSize: 0x34 }
  - { offsetInCU: 0x101A9, offset: 0x101A9, size: 0x8, addend: 0x0, symName: __ZNKSt3__15dequeIcNS_9allocatorIcEEE23__annotate_poison_blockB8ue170006EPKvS5_, symObjAddr: 0x40C0, symBinAddr: 0x100007C88, symSize: 0x44 }
  - { offsetInCU: 0x101F6, offset: 0x101F6, size: 0x8, addend: 0x0, symName: __ZNKSt3__16__lessIvvEclB8ue170006ImmEEbRKT_RKT0_, symObjAddr: 0x4158, symBinAddr: 0x100007D20, symSize: 0x34 }
  - { offsetInCU: 0x10249, offset: 0x10249, size: 0x8, addend: 0x0, symName: __ZNSt3__117__compressed_pairIPPcNS_9allocatorIS1_EEE6secondB8ue170006Ev, symObjAddr: 0x418C, symBinAddr: 0x100007D54, symSize: 0x24 }
  - { offsetInCU: 0x1026E, offset: 0x1026E, size: 0x8, addend: 0x0, symName: __ZNSt3__122__compressed_pair_elemINS_9allocatorIPcEELi1ELb1EE5__getB8ue170006Ev, symObjAddr: 0x41B0, symBinAddr: 0x100007D78, symSize: 0x14 }
  - { offsetInCU: 0x10293, offset: 0x10293, size: 0x8, addend: 0x0, symName: __ZNSt3__114__split_bufferIPcRNS_9allocatorIS1_EEEC2EmmS4_, symObjAddr: 0x41C4, symBinAddr: 0x100007D8C, symSize: 0xD4 }
  - { offsetInCU: 0x10306, offset: 0x10306, size: 0x8, addend: 0x0, symName: __ZNSt3__117__compressed_pairIPPcRNS_9allocatorIS1_EEEC1B8ue170006IDnS5_EEOT_OT0_, symObjAddr: 0x4298, symBinAddr: 0x100007E60, symSize: 0x3C }
  - { offsetInCU: 0x1035D, offset: 0x1035D, size: 0x8, addend: 0x0, symName: __ZNSt3__117__compressed_pairIPPcRNS_9allocatorIS1_EEEC2B8ue170006IDnS5_EEOT_OT0_, symObjAddr: 0x4314, symBinAddr: 0x100007EDC, symSize: 0x48 }
  - { offsetInCU: 0x103B4, offset: 0x103B4, size: 0x8, addend: 0x0, symName: __ZNSt3__122__compressed_pair_elemIRNS_9allocatorIPcEELi1ELb0EEC2B8ue170006IS4_vEEOT_, symObjAddr: 0x435C, symBinAddr: 0x100007F24, symSize: 0x20 }
  - { offsetInCU: 0x103F5, offset: 0x103F5, size: 0x8, addend: 0x0, symName: __ZNSt3__19allocatorIPcE8allocateB8ue170006Em, symObjAddr: 0x437C, symBinAddr: 0x100007F44, symSize: 0x58 }
  - { offsetInCU: 0x10432, offset: 0x10432, size: 0x8, addend: 0x0, symName: __ZNSt3__116allocator_traitsINS_9allocatorIPcEEE8max_sizeB8ue170006IS3_vEEmRKS3_, symObjAddr: 0x43D4, symBinAddr: 0x100007F9C, symSize: 0x24 }
  - { offsetInCU: 0x10460, offset: 0x10460, size: 0x8, addend: 0x0, symName: __ZNKSt3__19allocatorIPcE8max_sizeB8ue170006Ev, symObjAddr: 0x43F8, symBinAddr: 0x100007FC0, symSize: 0x14 }
  - { offsetInCU: 0x10485, offset: 0x10485, size: 0x8, addend: 0x0, symName: __ZNSt3__122__allocator_destructorINS_9allocatorIcEEEC2B8ue170006ERS2_m, symObjAddr: 0x440C, symBinAddr: 0x100007FD4, symSize: 0x2C }
  - { offsetInCU: 0x104CA, offset: 0x104CA, size: 0x8, addend: 0x0, symName: __ZNSt3__110unique_ptrIPcNS_22__allocator_destructorINS_9allocatorIcEEEEEC2B8ue170006ILb1EvEES1_NS_16__dependent_typeINS_27__unique_ptr_deleter_sfinaeIS5_EEXT_EE20__good_rval_ref_typeE, symObjAddr: 0x4438, symBinAddr: 0x100008000, symSize: 0x48 }
  - { offsetInCU: 0x1051A, offset: 0x1051A, size: 0x8, addend: 0x0, symName: __ZNSt3__117__compressed_pairIPcNS_22__allocator_destructorINS_9allocatorIcEEEEEC1B8ue170006IRS1_S5_EEOT_OT0_, symObjAddr: 0x4480, symBinAddr: 0x100008048, symSize: 0x3C }
  - { offsetInCU: 0x10571, offset: 0x10571, size: 0x8, addend: 0x0, symName: __ZNSt3__117__compressed_pairIPcNS_22__allocator_destructorINS_9allocatorIcEEEEEC2B8ue170006IRS1_S5_EEOT_OT0_, symObjAddr: 0x44BC, symBinAddr: 0x100008084, symSize: 0x48 }
  - { offsetInCU: 0x105C8, offset: 0x105C8, size: 0x8, addend: 0x0, symName: __ZNSt3__122__compressed_pair_elemIPcLi0ELb0EEC2B8ue170006IRS1_vEEOT_, symObjAddr: 0x4504, symBinAddr: 0x1000080CC, symSize: 0x24 }
  - { offsetInCU: 0x10609, offset: 0x10609, size: 0x8, addend: 0x0, symName: __ZNSt3__122__compressed_pair_elemINS_22__allocator_destructorINS_9allocatorIcEEEELi1ELb0EEC2B8ue170006IS4_vEEOT_, symObjAddr: 0x4528, symBinAddr: 0x1000080F0, symSize: 0x24 }
  - { offsetInCU: 0x1064A, offset: 0x1064A, size: 0x8, addend: 0x0, symName: __ZNKSt3__117__compressed_pairIPcNS_22__allocator_destructorINS_9allocatorIcEEEEE5firstB8ue170006Ev, symObjAddr: 0x454C, symBinAddr: 0x100008114, symSize: 0x24 }
  - { offsetInCU: 0x1066F, offset: 0x1066F, size: 0x8, addend: 0x0, symName: __ZNKSt3__122__compressed_pair_elemIPcLi0ELb0EE5__getB8ue170006Ev, symObjAddr: 0x4570, symBinAddr: 0x100008138, symSize: 0x14 }
  - { offsetInCU: 0x10694, offset: 0x10694, size: 0x8, addend: 0x0, symName: __ZNSt3__117__compressed_pairIPcNS_22__allocator_destructorINS_9allocatorIcEEEEE5firstB8ue170006Ev, symObjAddr: 0x4584, symBinAddr: 0x10000814C, symSize: 0x24 }
  - { offsetInCU: 0x106B9, offset: 0x106B9, size: 0x8, addend: 0x0, symName: __ZNSt3__122__compressed_pair_elemIPcLi0ELb0EE5__getB8ue170006Ev, symObjAddr: 0x45A8, symBinAddr: 0x100008170, symSize: 0x14 }
  - { offsetInCU: 0x106DE, offset: 0x106DE, size: 0x8, addend: 0x0, symName: __ZNSt3__117__compressed_pairIPPcNS_9allocatorIS1_EEE5firstB8ue170006Ev, symObjAddr: 0x45BC, symBinAddr: 0x100008184, symSize: 0x24 }
  - { offsetInCU: 0x10703, offset: 0x10703, size: 0x8, addend: 0x0, symName: __ZNSt3__122__compressed_pair_elemIPPcLi0ELb0EE5__getB8ue170006Ev, symObjAddr: 0x45E0, symBinAddr: 0x1000081A8, symSize: 0x14 }
  - { offsetInCU: 0x10728, offset: 0x10728, size: 0x8, addend: 0x0, symName: __ZNSt3__117__compressed_pairIPPcRNS_9allocatorIS1_EEE5firstB8ue170006Ev, symObjAddr: 0x45F4, symBinAddr: 0x1000081BC, symSize: 0x24 }
  - { offsetInCU: 0x1074D, offset: 0x1074D, size: 0x8, addend: 0x0, symName: __ZNSt3__110unique_ptrIPcNS_22__allocator_destructorINS_9allocatorIcEEEEED2B8ue170006Ev, symObjAddr: 0x4618, symBinAddr: 0x1000081E0, symSize: 0x30 }
  - { offsetInCU: 0x10776, offset: 0x10776, size: 0x8, addend: 0x0, symName: __ZNSt3__110unique_ptrIPcNS_22__allocator_destructorINS_9allocatorIcEEEEE5resetB8ue170006ES1_, symObjAddr: 0x4648, symBinAddr: 0x100008210, symSize: 0x78 }
  - { offsetInCU: 0x107B9, offset: 0x107B9, size: 0x8, addend: 0x0, symName: __ZNSt3__117__compressed_pairIPcNS_22__allocator_destructorINS_9allocatorIcEEEEE6secondB8ue170006Ev, symObjAddr: 0x46C0, symBinAddr: 0x100008288, symSize: 0x28 }
  - { offsetInCU: 0x107DE, offset: 0x107DE, size: 0x8, addend: 0x0, symName: __ZNSt3__122__allocator_destructorINS_9allocatorIcEEEclB8ue170006EPc, symObjAddr: 0x46E8, symBinAddr: 0x1000082B0, symSize: 0x34 }
  - { offsetInCU: 0x10811, offset: 0x10811, size: 0x8, addend: 0x0, symName: __ZNSt3__122__compressed_pair_elemINS_22__allocator_destructorINS_9allocatorIcEEEELi1ELb0EE5__getB8ue170006Ev, symObjAddr: 0x471C, symBinAddr: 0x1000082E4, symSize: 0x14 }
  - { offsetInCU: 0x10836, offset: 0x10836, size: 0x8, addend: 0x0, symName: __ZNSt3__116allocator_traitsINS_9allocatorIcEEE10deallocateB8ue170006ERS2_Pcm, symObjAddr: 0x4730, symBinAddr: 0x1000082F8, symSize: 0x34 }
  - { offsetInCU: 0x10878, offset: 0x10878, size: 0x8, addend: 0x0, symName: __ZNSt3__19allocatorIcE10deallocateB8ue170006EPcm, symObjAddr: 0x4764, symBinAddr: 0x10000832C, symSize: 0x40 }
  - { offsetInCU: 0x108B9, offset: 0x108B9, size: 0x8, addend: 0x0, symName: __ZNSt3__114__split_bufferIPcRNS_9allocatorIS1_EEED2Ev, symObjAddr: 0x4820, symBinAddr: 0x1000083E8, symSize: 0x8C }
  - { offsetInCU: 0x108E4, offset: 0x108E4, size: 0x8, addend: 0x0, symName: __ZNSt3__114__split_bufferIPcRNS_9allocatorIS1_EEE5clearB8ue170006Ev, symObjAddr: 0x48AC, symBinAddr: 0x100008474, symSize: 0x28 }
  - { offsetInCU: 0x10909, offset: 0x10909, size: 0x8, addend: 0x0, symName: __ZNSt3__116allocator_traitsINS_9allocatorIPcEEE10deallocateB8ue170006ERS3_PS2_m, symObjAddr: 0x48D4, symBinAddr: 0x10000849C, symSize: 0x34 }
  - { offsetInCU: 0x1094B, offset: 0x1094B, size: 0x8, addend: 0x0, symName: __ZNKSt3__114__split_bufferIPcRNS_9allocatorIS1_EEE8capacityB8ue170006Ev, symObjAddr: 0x4908, symBinAddr: 0x1000084D0, symSize: 0x40 }
  - { offsetInCU: 0x10970, offset: 0x10970, size: 0x8, addend: 0x0, symName: __ZNSt3__114__split_bufferIPcRNS_9allocatorIS1_EEE17__destruct_at_endB8ue170006EPS1_, symObjAddr: 0x4948, symBinAddr: 0x100008510, symSize: 0x2C }
  - { offsetInCU: 0x109A2, offset: 0x109A2, size: 0x8, addend: 0x0, symName: __ZNSt3__114__split_bufferIPcRNS_9allocatorIS1_EEE17__destruct_at_endB8ue170006EPS1_NS_17integral_constantIbLb0EEE, symObjAddr: 0x4974, symBinAddr: 0x10000853C, symSize: 0x80 }
  - { offsetInCU: 0x109E1, offset: 0x109E1, size: 0x8, addend: 0x0, symName: __ZNSt3__116allocator_traitsINS_9allocatorIPcEEE7destroyB8ue170006IS2_vEEvRS3_PT_, symObjAddr: 0x49F4, symBinAddr: 0x1000085BC, symSize: 0x2C }
  - { offsetInCU: 0x10A1E, offset: 0x10A1E, size: 0x8, addend: 0x0, symName: __ZNSt3__19allocatorIPcE7destroyB8ue170006EPS1_, symObjAddr: 0x4A20, symBinAddr: 0x1000085E8, symSize: 0x14 }
  - { offsetInCU: 0x10A51, offset: 0x10A51, size: 0x8, addend: 0x0, symName: __ZNSt3__19allocatorIPcE10deallocateB8ue170006EPS1_m, symObjAddr: 0x4A34, symBinAddr: 0x1000085FC, symSize: 0x40 }
  - { offsetInCU: 0x10A92, offset: 0x10A92, size: 0x8, addend: 0x0, symName: __ZNKSt3__114__split_bufferIPcRNS_9allocatorIS1_EEE9__end_capB8ue170006Ev, symObjAddr: 0x4A74, symBinAddr: 0x10000863C, symSize: 0x28 }
  - { offsetInCU: 0x10AB7, offset: 0x10AB7, size: 0x8, addend: 0x0, symName: __ZNKSt3__117__compressed_pairIPPcRNS_9allocatorIS1_EEE5firstB8ue170006Ev, symObjAddr: 0x4A9C, symBinAddr: 0x100008664, symSize: 0x24 }
  - { offsetInCU: 0x10ADC, offset: 0x10ADC, size: 0x8, addend: 0x0, symName: __ZNSt3__19allocatorIcE9constructB8ue170006IcJRKcEEEvPT_DpOT0_, symObjAddr: 0x4AC0, symBinAddr: 0x100008688, symSize: 0x28 }
  - { offsetInCU: 0x10B31, offset: 0x10B31, size: 0x8, addend: 0x0, symName: __ZNKSt3__114__split_bufferIPcNS_9allocatorIS1_EEE5emptyB8ue170006Ev, symObjAddr: 0x4AE8, symBinAddr: 0x1000086B0, symSize: 0x28 }
  - { offsetInCU: 0x10B56, offset: 0x10B56, size: 0x8, addend: 0x0, symName: __ZNSt3__116__deque_iteratorIcPcRcPS1_lLl4096EEC1B8ue170006ES3_S1_, symObjAddr: 0x4B10, symBinAddr: 0x1000086D8, symSize: 0x3C }
  - { offsetInCU: 0x10B9D, offset: 0x10B9D, size: 0x8, addend: 0x0, symName: __ZNSt3__116__deque_iteratorIcPcRcPS1_lLl4096EEC2B8ue170006ES3_S1_, symObjAddr: 0x4B4C, symBinAddr: 0x100008714, symSize: 0x2C }
  - { offsetInCU: 0x10BE4, offset: 0x10BE4, size: 0x8, addend: 0x0, symName: __ZNSt3__117__compressed_pairImNS_9allocatorIcEEE5firstB8ue170006Ev, symObjAddr: 0x4B78, symBinAddr: 0x100008740, symSize: 0x24 }
  - { offsetInCU: 0x10C09, offset: 0x10C09, size: 0x8, addend: 0x0, symName: __ZNSt3__122__compressed_pair_elemImLi0ELb0EE5__getB8ue170006Ev, symObjAddr: 0x4B9C, symBinAddr: 0x100008764, symSize: 0x14 }
  - { offsetInCU: 0x10C2D, offset: 0x10C2D, size: 0x8, addend: 0x0, symName: __ZNSt3__15dequeIcNS_9allocatorIcEEE8pop_backEv, symObjAddr: 0x4BB0, symBinAddr: 0x100008778, symSize: 0xE0 }
  - { offsetInCU: 0x10C90, offset: 0x10C90, size: 0x8, addend: 0x0, symName: __ZNSt3__116allocator_traitsINS_9allocatorIcEEE7destroyB8ue170006IcvEEvRS2_PT_, symObjAddr: 0x4C90, symBinAddr: 0x100008858, symSize: 0x2C }
  - { offsetInCU: 0x10CCD, offset: 0x10CCD, size: 0x8, addend: 0x0, symName: __ZNKSt3__15dequeIcNS_9allocatorIcEEE22__annotate_shrink_backB8ue170006Emm, symObjAddr: 0x4CBC, symBinAddr: 0x100008884, symSize: 0x60 }
  - { offsetInCU: 0x10D10, offset: 0x10D10, size: 0x8, addend: 0x0, symName: __ZNSt3__15dequeIcNS_9allocatorIcEEE25__maybe_remove_back_spareB8ue170006Eb, symObjAddr: 0x4D1C, symBinAddr: 0x1000088E4, symSize: 0xE8 }
  - { offsetInCU: 0x10D44, offset: 0x10D44, size: 0x8, addend: 0x0, symName: __ZNSt3__19allocatorIcE7destroyB8ue170006EPc, symObjAddr: 0x4E04, symBinAddr: 0x1000089CC, symSize: 0x14 }
  - { offsetInCU: 0x10D77, offset: 0x10D77, size: 0x8, addend: 0x0, symName: __ZNKSt3__15dequeIcNS_9allocatorIcEEE19__back_spare_blocksB8ue170006Ev, symObjAddr: 0x4E18, symBinAddr: 0x1000089E0, symSize: 0x2C }
  - { offsetInCU: 0x10D9C, offset: 0x10D9C, size: 0x8, addend: 0x0, symName: __ZNSt3__114__split_bufferIPcNS_9allocatorIS1_EEE4backB8ue170006Ev, symObjAddr: 0x4E44, symBinAddr: 0x100008A0C, symSize: 0x1C }
  - { offsetInCU: 0x10DC1, offset: 0x10DC1, size: 0x8, addend: 0x0, symName: __ZNSt3__114__split_bufferIPcNS_9allocatorIS1_EEE8pop_backB8ue170006Ev, symObjAddr: 0x4E60, symBinAddr: 0x100008A28, symSize: 0x2C }
  - { offsetInCU: 0x10DE6, offset: 0x10DE6, size: 0x8, addend: 0x0, symName: __ZNSt3__114__split_bufferIPcNS_9allocatorIS1_EEE17__destruct_at_endB8ue170006EPS1_, symObjAddr: 0x4E8C, symBinAddr: 0x100008A54, symSize: 0x2C }
  - { offsetInCU: 0x10E18, offset: 0x10E18, size: 0x8, addend: 0x0, symName: __ZNSt3__114__split_bufferIPcNS_9allocatorIS1_EEE17__destruct_at_endB8ue170006EPS1_NS_17integral_constantIbLb0EEE, symObjAddr: 0x4EB8, symBinAddr: 0x100008A80, symSize: 0x80 }
  - { offsetInCU: 0x10E57, offset: 0x10E57, size: 0x8, addend: 0x0, symName: __ZNSt3__15stackIcNS_5dequeIcNS_9allocatorIcEEEEED2Ev, symObjAddr: 0x4F38, symBinAddr: 0x100008B00, symSize: 0x2C }
  - { offsetInCU: 0x10E82, offset: 0x10E82, size: 0x8, addend: 0x0, symName: __ZNSt3__15dequeIcNS_9allocatorIcEEED1B8ue170006Ev, symObjAddr: 0x4F64, symBinAddr: 0x100008B2C, symSize: 0x2C }
  - { offsetInCU: 0x10EAB, offset: 0x10EAB, size: 0x8, addend: 0x0, symName: __ZNSt3__15dequeIcNS_9allocatorIcEEED2B8ue170006Ev, symObjAddr: 0x4F90, symBinAddr: 0x100008B58, symSize: 0xA4 }
  - { offsetInCU: 0x10F00, offset: 0x10F00, size: 0x8, addend: 0x0, symName: __ZNSt3__15dequeIcNS_9allocatorIcEEE5clearEv, symObjAddr: 0x5034, symBinAddr: 0x100008BFC, symSize: 0x170 }
  - { offsetInCU: 0x10F5A, offset: 0x10F5A, size: 0x8, addend: 0x0, symName: __ZNKSt3__15dequeIcNS_9allocatorIcEEE17__annotate_deleteB8ue170006Ev, symObjAddr: 0x51A4, symBinAddr: 0x100008D6C, symSize: 0xE8 }
  - { offsetInCU: 0x10F9D, offset: 0x10F9D, size: 0x8, addend: 0x0, symName: __ZNSt3__114__split_bufferIPcNS_9allocatorIS1_EEED1Ev, symObjAddr: 0x528C, symBinAddr: 0x100008E54, symSize: 0x2C }
  - { offsetInCU: 0x10FC8, offset: 0x10FC8, size: 0x8, addend: 0x0, symName: __ZNSt3__15dequeIcNS_9allocatorIcEEE5beginB8ue170006Ev, symObjAddr: 0x52B8, symBinAddr: 0x100008E80, symSize: 0xA8 }
  - { offsetInCU: 0x10FFC, offset: 0x10FFC, size: 0x8, addend: 0x0, symName: __ZNSt3__116__deque_iteratorIcPcRcPS1_lLl4096EEppB8ue170006Ev, symObjAddr: 0x5394, symBinAddr: 0x100008F5C, symSize: 0x68 }
  - { offsetInCU: 0x11021, offset: 0x11021, size: 0x8, addend: 0x0, symName: __ZNSt3__114__split_bufferIPcNS_9allocatorIS1_EEED2Ev, symObjAddr: 0x542C, symBinAddr: 0x100008FF4, symSize: 0x80 }
  - { offsetInCU: 0x1104C, offset: 0x1104C, size: 0x8, addend: 0x0, symName: __ZNSt3__114__split_bufferIPcNS_9allocatorIS1_EEE5clearB8ue170006Ev, symObjAddr: 0x54AC, symBinAddr: 0x100009074, symSize: 0x28 }
  - { offsetInCU: 0x11071, offset: 0x11071, size: 0x8, addend: 0x0, symName: __ZNSt3__16vectorINS_12basic_stringIcNS_11char_traitsIcEENS_9allocatorIcEEEENS4_IS6_EEE9__end_capB8ue170006Ev, symObjAddr: 0x54D4, symBinAddr: 0x10000909C, symSize: 0x28 }
  - { offsetInCU: 0x11096, offset: 0x11096, size: 0x8, addend: 0x0, symName: __ZNSt3__16vectorINS_12basic_stringIcNS_11char_traitsIcEENS_9allocatorIcEEEENS4_IS6_EEE22__construct_one_at_endB8ue170006IJRKS6_EEEvDpOT_, symObjAddr: 0x54FC, symBinAddr: 0x1000090C4, symSize: 0x90 }
  - { offsetInCU: 0x110E3, offset: 0x110E3, size: 0x8, addend: 0x0, symName: __ZNSt3__16vectorINS_12basic_stringIcNS_11char_traitsIcEENS_9allocatorIcEEEENS4_IS6_EEE21__push_back_slow_pathIRKS6_EEvOT_, symObjAddr: 0x558C, symBinAddr: 0x100009154, symSize: 0xD8 }
  - { offsetInCU: 0x11140, offset: 0x11140, size: 0x8, addend: 0x0, symName: __ZNSt3__117__compressed_pairIPNS_12basic_stringIcNS_11char_traitsIcEENS_9allocatorIcEEEENS4_IS6_EEE5firstB8ue170006Ev, symObjAddr: 0x5664, symBinAddr: 0x10000922C, symSize: 0x24 }
  - { offsetInCU: 0x11165, offset: 0x11165, size: 0x8, addend: 0x0, symName: __ZNSt3__122__compressed_pair_elemIPNS_12basic_stringIcNS_11char_traitsIcEENS_9allocatorIcEEEELi0ELb0EE5__getB8ue170006Ev, symObjAddr: 0x5688, symBinAddr: 0x100009250, symSize: 0x14 }
  - { offsetInCU: 0x111A3, offset: 0x111A3, size: 0x8, addend: 0x0, symName: __ZNSt3__16vectorINS_12basic_stringIcNS_11char_traitsIcEENS_9allocatorIcEEEENS4_IS6_EEE21_ConstructTransactionC1B8ue170006ERS8_m, symObjAddr: 0x569C, symBinAddr: 0x100009264, symSize: 0x3C }
  - { offsetInCU: 0x111EA, offset: 0x111EA, size: 0x8, addend: 0x0, symName: __ZNSt3__116allocator_traitsINS_9allocatorINS_12basic_stringIcNS_11char_traitsIcEENS1_IcEEEEEEE9constructB8ue170006IS6_JRKS6_EvEEvRS7_PT_DpOT0_, symObjAddr: 0x56D8, symBinAddr: 0x1000092A0, symSize: 0x34 }
  - { offsetInCU: 0x11241, offset: 0x11241, size: 0x8, addend: 0x0, symName: __ZNSt3__16vectorINS_12basic_stringIcNS_11char_traitsIcEENS_9allocatorIcEEEENS4_IS6_EEE7__allocB8ue170006Ev, symObjAddr: 0x570C, symBinAddr: 0x1000092D4, symSize: 0x28 }
  - { offsetInCU: 0x11266, offset: 0x11266, size: 0x8, addend: 0x0, symName: __ZNSt3__16vectorINS_12basic_stringIcNS_11char_traitsIcEENS_9allocatorIcEEEENS4_IS6_EEE21_ConstructTransactionD1B8ue170006Ev, symObjAddr: 0x5748, symBinAddr: 0x100009310, symSize: 0x2C }
  - { offsetInCU: 0x1128F, offset: 0x1128F, size: 0x8, addend: 0x0, symName: __ZNSt3__16vectorINS_12basic_stringIcNS_11char_traitsIcEENS_9allocatorIcEEEENS4_IS6_EEE21_ConstructTransactionC2B8ue170006ERS8_m, symObjAddr: 0x5774, symBinAddr: 0x10000933C, symSize: 0x4C }
  - { offsetInCU: 0x112D6, offset: 0x112D6, size: 0x8, addend: 0x0, symName: __ZNSt3__19allocatorINS_12basic_stringIcNS_11char_traitsIcEENS0_IcEEEEE9constructB8ue170006IS5_JRKS5_EEEvPT_DpOT0_, symObjAddr: 0x57C0, symBinAddr: 0x100009388, symSize: 0x30 }
  - { offsetInCU: 0x1132B, offset: 0x1132B, size: 0x8, addend: 0x0, symName: __ZNSt3__117__compressed_pairIPNS_12basic_stringIcNS_11char_traitsIcEENS_9allocatorIcEEEENS4_IS6_EEE6secondB8ue170006Ev, symObjAddr: 0x57F0, symBinAddr: 0x1000093B8, symSize: 0x24 }
  - { offsetInCU: 0x11350, offset: 0x11350, size: 0x8, addend: 0x0, symName: __ZNSt3__122__compressed_pair_elemINS_9allocatorINS_12basic_stringIcNS_11char_traitsIcEENS1_IcEEEEEELi1ELb1EE5__getB8ue170006Ev, symObjAddr: 0x5814, symBinAddr: 0x1000093DC, symSize: 0x14 }
  - { offsetInCU: 0x11375, offset: 0x11375, size: 0x8, addend: 0x0, symName: __ZNSt3__16vectorINS_12basic_stringIcNS_11char_traitsIcEENS_9allocatorIcEEEENS4_IS6_EEE21_ConstructTransactionD2B8ue170006Ev, symObjAddr: 0x5828, symBinAddr: 0x1000093F0, symSize: 0x20 }
  - { offsetInCU: 0x1139D, offset: 0x1139D, size: 0x8, addend: 0x0, symName: __ZNKSt3__16vectorINS_12basic_stringIcNS_11char_traitsIcEENS_9allocatorIcEEEENS4_IS6_EEE11__recommendB8ue170006Em, symObjAddr: 0x5848, symBinAddr: 0x100009410, symSize: 0xB4 }
  - { offsetInCU: 0x113F1, offset: 0x113F1, size: 0x8, addend: 0x0, symName: __ZNSt3__114__split_bufferINS_12basic_stringIcNS_11char_traitsIcEENS_9allocatorIcEEEERNS4_IS6_EEEC1EmmS8_, symObjAddr: 0x58FC, symBinAddr: 0x1000094C4, symSize: 0x44 }
  - { offsetInCU: 0x11446, offset: 0x11446, size: 0x8, addend: 0x0, symName: __ZNSt3__114__split_bufferINS_12basic_stringIcNS_11char_traitsIcEENS_9allocatorIcEEEERNS4_IS6_EEED1Ev, symObjAddr: 0x5A50, symBinAddr: 0x100009618, symSize: 0x2C }
  - { offsetInCU: 0x11470, offset: 0x11470, size: 0x8, addend: 0x0, symName: __ZNKSt3__16vectorINS_12basic_stringIcNS_11char_traitsIcEENS_9allocatorIcEEEENS4_IS6_EEE8max_sizeEv, symObjAddr: 0x5A7C, symBinAddr: 0x100009644, symSize: 0x60 }
  - { offsetInCU: 0x11497, offset: 0x11497, size: 0x8, addend: 0x0, symName: __ZNKSt3__16vectorINS_12basic_stringIcNS_11char_traitsIcEENS_9allocatorIcEEEENS4_IS6_EEE20__throw_length_errorB8ue170006Ev, symObjAddr: 0x5ADC, symBinAddr: 0x1000096A4, symSize: 0x1C }
  - { offsetInCU: 0x114BC, offset: 0x114BC, size: 0x8, addend: 0x0, symName: __ZNKSt3__16vectorINS_12basic_stringIcNS_11char_traitsIcEENS_9allocatorIcEEEENS4_IS6_EEE8capacityB8ue170006Ev, symObjAddr: 0x5AF8, symBinAddr: 0x1000096C0, symSize: 0x40 }
  - { offsetInCU: 0x114EB, offset: 0x114EB, size: 0x8, addend: 0x0, symName: __ZNSt3__116allocator_traitsINS_9allocatorINS_12basic_stringIcNS_11char_traitsIcEENS1_IcEEEEEEE8max_sizeB8ue170006IS7_vEEmRKS7_, symObjAddr: 0x5B64, symBinAddr: 0x10000972C, symSize: 0x24 }
  - { offsetInCU: 0x11519, offset: 0x11519, size: 0x8, addend: 0x0, symName: __ZNKSt3__16vectorINS_12basic_stringIcNS_11char_traitsIcEENS_9allocatorIcEEEENS4_IS6_EEE7__allocB8ue170006Ev, symObjAddr: 0x5B88, symBinAddr: 0x100009750, symSize: 0x28 }
  - { offsetInCU: 0x1153E, offset: 0x1153E, size: 0x8, addend: 0x0, symName: __ZNSt3__114numeric_limitsIlE3maxB8ue170006Ev, symObjAddr: 0x5BB0, symBinAddr: 0x100009778, symSize: 0x14 }
  - { offsetInCU: 0x11552, offset: 0x11552, size: 0x8, addend: 0x0, symName: __ZNKSt3__19allocatorINS_12basic_stringIcNS_11char_traitsIcEENS0_IcEEEEE8max_sizeB8ue170006Ev, symObjAddr: 0x5C18, symBinAddr: 0x1000097E0, symSize: 0x18 }
  - { offsetInCU: 0x11577, offset: 0x11577, size: 0x8, addend: 0x0, symName: __ZNKSt3__117__compressed_pairIPNS_12basic_stringIcNS_11char_traitsIcEENS_9allocatorIcEEEENS4_IS6_EEE6secondB8ue170006Ev, symObjAddr: 0x5C30, symBinAddr: 0x1000097F8, symSize: 0x24 }
  - { offsetInCU: 0x1159C, offset: 0x1159C, size: 0x8, addend: 0x0, symName: __ZNKSt3__122__compressed_pair_elemINS_9allocatorINS_12basic_stringIcNS_11char_traitsIcEENS1_IcEEEEEELi1ELb1EE5__getB8ue170006Ev, symObjAddr: 0x5C54, symBinAddr: 0x10000981C, symSize: 0x14 }
  - { offsetInCU: 0x115C1, offset: 0x115C1, size: 0x8, addend: 0x0, symName: __ZNSt3__123__libcpp_numeric_limitsIlLb1EE3maxB8ue170006Ev, symObjAddr: 0x5C68, symBinAddr: 0x100009830, symSize: 0x8 }
  - { offsetInCU: 0x115D5, offset: 0x115D5, size: 0x8, addend: 0x0, symName: __ZNSt12length_errorC1B8ue170006EPKc, symObjAddr: 0x5CD4, symBinAddr: 0x10000989C, symSize: 0x34 }
  - { offsetInCU: 0x1160C, offset: 0x1160C, size: 0x8, addend: 0x0, symName: __ZNSt12length_errorC2B8ue170006EPKc, symObjAddr: 0x5D08, symBinAddr: 0x1000098D0, symSize: 0x4C }
  - { offsetInCU: 0x11643, offset: 0x11643, size: 0x8, addend: 0x0, symName: __ZNKSt3__16vectorINS_12basic_stringIcNS_11char_traitsIcEENS_9allocatorIcEEEENS4_IS6_EEE9__end_capB8ue170006Ev, symObjAddr: 0x5D54, symBinAddr: 0x10000991C, symSize: 0x28 }
  - { offsetInCU: 0x11668, offset: 0x11668, size: 0x8, addend: 0x0, symName: __ZNKSt3__117__compressed_pairIPNS_12basic_stringIcNS_11char_traitsIcEENS_9allocatorIcEEEENS4_IS6_EEE5firstB8ue170006Ev, symObjAddr: 0x5D7C, symBinAddr: 0x100009944, symSize: 0x24 }
  - { offsetInCU: 0x1168D, offset: 0x1168D, size: 0x8, addend: 0x0, symName: __ZNKSt3__122__compressed_pair_elemIPNS_12basic_stringIcNS_11char_traitsIcEENS_9allocatorIcEEEELi0ELb0EE5__getB8ue170006Ev, symObjAddr: 0x5DA0, symBinAddr: 0x100009968, symSize: 0x14 }
  - { offsetInCU: 0x116B2, offset: 0x116B2, size: 0x8, addend: 0x0, symName: __ZNSt3__114__split_bufferINS_12basic_stringIcNS_11char_traitsIcEENS_9allocatorIcEEEERNS4_IS6_EEEC2EmmS8_, symObjAddr: 0x5DB4, symBinAddr: 0x10000997C, symSize: 0xE0 }
  - { offsetInCU: 0x11725, offset: 0x11725, size: 0x8, addend: 0x0, symName: __ZNSt3__117__compressed_pairIPNS_12basic_stringIcNS_11char_traitsIcEENS_9allocatorIcEEEERNS4_IS6_EEEC1B8ue170006IDnS9_EEOT_OT0_, symObjAddr: 0x5E94, symBinAddr: 0x100009A5C, symSize: 0x3C }
  - { offsetInCU: 0x1177C, offset: 0x1177C, size: 0x8, addend: 0x0, symName: __ZNSt3__114__split_bufferINS_12basic_stringIcNS_11char_traitsIcEENS_9allocatorIcEEEERNS4_IS6_EEE7__allocB8ue170006Ev, symObjAddr: 0x5F10, symBinAddr: 0x100009AD8, symSize: 0x28 }
  - { offsetInCU: 0x117A1, offset: 0x117A1, size: 0x8, addend: 0x0, symName: __ZNSt3__114__split_bufferINS_12basic_stringIcNS_11char_traitsIcEENS_9allocatorIcEEEERNS4_IS6_EEE9__end_capB8ue170006Ev, symObjAddr: 0x5F38, symBinAddr: 0x100009B00, symSize: 0x28 }
  - { offsetInCU: 0x117C6, offset: 0x117C6, size: 0x8, addend: 0x0, symName: __ZNSt3__117__compressed_pairIPNS_12basic_stringIcNS_11char_traitsIcEENS_9allocatorIcEEEERNS4_IS6_EEEC2B8ue170006IDnS9_EEOT_OT0_, symObjAddr: 0x5F60, symBinAddr: 0x100009B28, symSize: 0x48 }
  - { offsetInCU: 0x1181D, offset: 0x1181D, size: 0x8, addend: 0x0, symName: __ZNSt3__122__compressed_pair_elemIRNS_9allocatorINS_12basic_stringIcNS_11char_traitsIcEENS1_IcEEEEEELi1ELb0EEC2B8ue170006IS8_vEEOT_, symObjAddr: 0x5FA8, symBinAddr: 0x100009B70, symSize: 0x20 }
  - { offsetInCU: 0x1185E, offset: 0x1185E, size: 0x8, addend: 0x0, symName: __ZNSt3__19allocatorINS_12basic_stringIcNS_11char_traitsIcEENS0_IcEEEEE8allocateB8ue170006Em, symObjAddr: 0x5FC8, symBinAddr: 0x100009B90, symSize: 0x5C }
  - { offsetInCU: 0x11891, offset: 0x11891, size: 0x8, addend: 0x0, symName: __ZNSt3__117__compressed_pairIPNS_12basic_stringIcNS_11char_traitsIcEENS_9allocatorIcEEEERNS4_IS6_EEE6secondB8ue170006Ev, symObjAddr: 0x6024, symBinAddr: 0x100009BEC, symSize: 0x28 }
  - { offsetInCU: 0x118B6, offset: 0x118B6, size: 0x8, addend: 0x0, symName: __ZNSt3__122__compressed_pair_elemIRNS_9allocatorINS_12basic_stringIcNS_11char_traitsIcEENS1_IcEEEEEELi1ELb0EE5__getB8ue170006Ev, symObjAddr: 0x604C, symBinAddr: 0x100009C14, symSize: 0x18 }
  - { offsetInCU: 0x118DB, offset: 0x118DB, size: 0x8, addend: 0x0, symName: __ZNSt3__117__compressed_pairIPNS_12basic_stringIcNS_11char_traitsIcEENS_9allocatorIcEEEERNS4_IS6_EEE5firstB8ue170006Ev, symObjAddr: 0x6064, symBinAddr: 0x100009C2C, symSize: 0x24 }
  - { offsetInCU: 0x11900, offset: 0x11900, size: 0x8, addend: 0x0, symName: __ZNKSt3__16vectorINS_12basic_stringIcNS_11char_traitsIcEENS_9allocatorIcEEEENS4_IS6_EEE17__annotate_deleteB8ue170006Ev, symObjAddr: 0x6088, symBinAddr: 0x100009C50, symSize: 0xD4 }
  - { offsetInCU: 0x11925, offset: 0x11925, size: 0x8, addend: 0x0, symName: __ZNSt3__116reverse_iteratorIPNS_12basic_stringIcNS_11char_traitsIcEENS_9allocatorIcEEEEEC1B8ue170006ES7_, symObjAddr: 0x6288, symBinAddr: 0x100009E50, symSize: 0x34 }
  - { offsetInCU: 0x1195C, offset: 0x1195C, size: 0x8, addend: 0x0, symName: __ZNKSt3__116reverse_iteratorIPNS_12basic_stringIcNS_11char_traitsIcEENS_9allocatorIcEEEEE4baseB8ue170006Ev, symObjAddr: 0x62BC, symBinAddr: 0x100009E84, symSize: 0x18 }
  - { offsetInCU: 0x11981, offset: 0x11981, size: 0x8, addend: 0x0, symName: __ZNKSt3__16vectorINS_12basic_stringIcNS_11char_traitsIcEENS_9allocatorIcEEEENS4_IS6_EEE14__annotate_newB8ue170006Em, symObjAddr: 0x6310, symBinAddr: 0x100009ED8, symSize: 0xC8 }
  - { offsetInCU: 0x119B5, offset: 0x119B5, size: 0x8, addend: 0x0, symName: __ZNKSt3__16vectorINS_12basic_stringIcNS_11char_traitsIcEENS_9allocatorIcEEEENS4_IS6_EEE31__annotate_contiguous_containerB8ue170006EPKvSA_SA_SA_, symObjAddr: 0x63D8, symBinAddr: 0x100009FA0, symSize: 0x20 }
  - { offsetInCU: 0x11A0A, offset: 0x11A0A, size: 0x8, addend: 0x0, symName: __ZNKSt3__16vectorINS_12basic_stringIcNS_11char_traitsIcEENS_9allocatorIcEEEENS4_IS6_EEE4dataB8ue170006Ev, symObjAddr: 0x63F8, symBinAddr: 0x100009FC0, symSize: 0x28 }
  - { offsetInCU: 0x11A2F, offset: 0x11A2F, size: 0x8, addend: 0x0, symName: __ZNSt3__129_AllocatorDestroyRangeReverseINS_9allocatorINS_12basic_stringIcNS_11char_traitsIcEENS1_IcEEEEEENS_16reverse_iteratorIPS6_EEEC1B8ue170006ERS7_RSA_SD_, symObjAddr: 0x646C, symBinAddr: 0x10000A034, symSize: 0x44 }
  - { offsetInCU: 0x11A8A, offset: 0x11A8A, size: 0x8, addend: 0x0, symName: __ZNSt3__116allocator_traitsINS_9allocatorINS_12basic_stringIcNS_11char_traitsIcEENS1_IcEEEEEEE9constructB8ue170006IS6_JS6_EvEEvRS7_PT_DpOT0_, symObjAddr: 0x64F8, symBinAddr: 0x10000A0C0, symSize: 0x34 }
  - { offsetInCU: 0x11AE1, offset: 0x11AE1, size: 0x8, addend: 0x0, symName: __ZNKSt3__116reverse_iteratorIPNS_12basic_stringIcNS_11char_traitsIcEENS_9allocatorIcEEEEEdeB8ue170006Ev, symObjAddr: 0x6550, symBinAddr: 0x10000A118, symSize: 0x28 }
  - { offsetInCU: 0x11B14, offset: 0x11B14, size: 0x8, addend: 0x0, symName: __ZNSt3__116reverse_iteratorIPNS_12basic_stringIcNS_11char_traitsIcEENS_9allocatorIcEEEEEppB8ue170006Ev, symObjAddr: 0x6578, symBinAddr: 0x10000A140, symSize: 0x20 }
  - { offsetInCU: 0x11B39, offset: 0x11B39, size: 0x8, addend: 0x0, symName: __ZNSt3__128__exception_guard_exceptionsINS_29_AllocatorDestroyRangeReverseINS_9allocatorINS_12basic_stringIcNS_11char_traitsIcEENS2_IcEEEEEENS_16reverse_iteratorIPS7_EEEEE10__completeB8ue170006Ev, symObjAddr: 0x6598, symBinAddr: 0x10000A160, symSize: 0x1C }
  - { offsetInCU: 0x11B5E, offset: 0x11B5E, size: 0x8, addend: 0x0, symName: __ZNSt3__128__exception_guard_exceptionsINS_29_AllocatorDestroyRangeReverseINS_9allocatorINS_12basic_stringIcNS_11char_traitsIcEENS2_IcEEEEEENS_16reverse_iteratorIPS7_EEEEED1B8ue170006Ev, symObjAddr: 0x65B4, symBinAddr: 0x10000A17C, symSize: 0x2C }
  - { offsetInCU: 0x11B87, offset: 0x11B87, size: 0x8, addend: 0x0, symName: __ZNSt3__128__exception_guard_exceptionsINS_29_AllocatorDestroyRangeReverseINS_9allocatorINS_12basic_stringIcNS_11char_traitsIcEENS2_IcEEEEEENS_16reverse_iteratorIPS7_EEEEEC1B8ue170006ESC_, symObjAddr: 0x65E0, symBinAddr: 0x10000A1A8, symSize: 0x34 }
  - { offsetInCU: 0x11BBF, offset: 0x11BBF, size: 0x8, addend: 0x0, symName: __ZNSt3__128__exception_guard_exceptionsINS_29_AllocatorDestroyRangeReverseINS_9allocatorINS_12basic_stringIcNS_11char_traitsIcEENS2_IcEEEEEENS_16reverse_iteratorIPS7_EEEEEC2B8ue170006ESC_, symObjAddr: 0x6614, symBinAddr: 0x10000A1DC, symSize: 0x30 }
  - { offsetInCU: 0x11BF7, offset: 0x11BF7, size: 0x8, addend: 0x0, symName: __ZNSt3__129_AllocatorDestroyRangeReverseINS_9allocatorINS_12basic_stringIcNS_11char_traitsIcEENS1_IcEEEEEENS_16reverse_iteratorIPS6_EEEC2B8ue170006ERS7_RSA_SD_, symObjAddr: 0x6644, symBinAddr: 0x10000A20C, symSize: 0x38 }
  - { offsetInCU: 0x11C4D, offset: 0x11C4D, size: 0x8, addend: 0x0, symName: __ZNSt3__19allocatorINS_12basic_stringIcNS_11char_traitsIcEENS0_IcEEEEE9constructB8ue170006IS5_JS5_EEEvPT_DpOT0_, symObjAddr: 0x667C, symBinAddr: 0x10000A244, symSize: 0x30 }
  - { offsetInCU: 0x11CA2, offset: 0x11CA2, size: 0x8, addend: 0x0, symName: __ZNSt3__112basic_stringIcNS_11char_traitsIcEENS_9allocatorIcEEEC1B8ue170006EOS5_, symObjAddr: 0x66AC, symBinAddr: 0x10000A274, symSize: 0x34 }
  - { offsetInCU: 0x11CDA, offset: 0x11CDA, size: 0x8, addend: 0x0, symName: __ZNSt3__112basic_stringIcNS_11char_traitsIcEENS_9allocatorIcEEEC2B8ue170006EOS5_, symObjAddr: 0x66E0, symBinAddr: 0x10000A2A8, symSize: 0x48 }
  - { offsetInCU: 0x11D17, offset: 0x11D17, size: 0x8, addend: 0x0, symName: __ZNSt3__119__to_address_helperINS_16reverse_iteratorIPNS_12basic_stringIcNS_11char_traitsIcEENS_9allocatorIcEEEEEEvE6__callB8ue170006ERKS9_, symObjAddr: 0x6728, symBinAddr: 0x10000A2F0, symSize: 0x38 }
  - { offsetInCU: 0x11D3A, offset: 0x11D3A, size: 0x8, addend: 0x0, symName: __ZNKSt3__116reverse_iteratorIPNS_12basic_stringIcNS_11char_traitsIcEENS_9allocatorIcEEEEEptB8ue170006Ev, symObjAddr: 0x6760, symBinAddr: 0x10000A328, symSize: 0x24 }
  - { offsetInCU: 0x11D5F, offset: 0x11D5F, size: 0x8, addend: 0x0, symName: __ZNSt3__128__exception_guard_exceptionsINS_29_AllocatorDestroyRangeReverseINS_9allocatorINS_12basic_stringIcNS_11char_traitsIcEENS2_IcEEEEEENS_16reverse_iteratorIPS7_EEEEED2B8ue170006Ev, symObjAddr: 0x6784, symBinAddr: 0x10000A34C, symSize: 0x50 }
  - { offsetInCU: 0x11D88, offset: 0x11D88, size: 0x8, addend: 0x0, symName: __ZNKSt3__129_AllocatorDestroyRangeReverseINS_9allocatorINS_12basic_stringIcNS_11char_traitsIcEENS1_IcEEEEEENS_16reverse_iteratorIPS6_EEEclB8ue170006Ev, symObjAddr: 0x67D4, symBinAddr: 0x10000A39C, symSize: 0xB4 }
  - { offsetInCU: 0x11DAE, offset: 0x11DAE, size: 0x8, addend: 0x0, symName: __ZNSt3__116reverse_iteratorINS0_IPNS_12basic_stringIcNS_11char_traitsIcEENS_9allocatorIcEEEEEEEC1B8ue170006ES8_, symObjAddr: 0x68F8, symBinAddr: 0x10000A4C0, symSize: 0x3C }
  - { offsetInCU: 0x11DE5, offset: 0x11DE5, size: 0x8, addend: 0x0, symName: __ZNSt3__116allocator_traitsINS_9allocatorINS_12basic_stringIcNS_11char_traitsIcEENS1_IcEEEEEEE7destroyB8ue170006IS6_vEEvRS7_PT_, symObjAddr: 0x6994, symBinAddr: 0x10000A55C, symSize: 0x2C }
  - { offsetInCU: 0x11E22, offset: 0x11E22, size: 0x8, addend: 0x0, symName: __ZNSt3__116reverse_iteratorINS0_IPNS_12basic_stringIcNS_11char_traitsIcEENS_9allocatorIcEEEEEEEppB8ue170006Ev, symObjAddr: 0x69E4, symBinAddr: 0x10000A5AC, symSize: 0x30 }
  - { offsetInCU: 0x11E47, offset: 0x11E47, size: 0x8, addend: 0x0, symName: __ZNKSt3__116reverse_iteratorINS0_IPNS_12basic_stringIcNS_11char_traitsIcEENS_9allocatorIcEEEEEEE4baseB8ue170006Ev, symObjAddr: 0x6A14, symBinAddr: 0x10000A5DC, symSize: 0x24 }
  - { offsetInCU: 0x11E6C, offset: 0x11E6C, size: 0x8, addend: 0x0, symName: __ZNSt3__19allocatorINS_12basic_stringIcNS_11char_traitsIcEENS0_IcEEEEE7destroyB8ue170006EPS5_, symObjAddr: 0x6A38, symBinAddr: 0x10000A600, symSize: 0x28 }
  - { offsetInCU: 0x11EA4, offset: 0x11EA4, size: 0x8, addend: 0x0, symName: __ZNSt3__119__to_address_helperINS_16reverse_iteratorINS1_IPNS_12basic_stringIcNS_11char_traitsIcEENS_9allocatorIcEEEEEEEEvE6__callB8ue170006ERKSA_, symObjAddr: 0x6A60, symBinAddr: 0x10000A628, symSize: 0x38 }
  - { offsetInCU: 0x11EC7, offset: 0x11EC7, size: 0x8, addend: 0x0, symName: __ZNKSt3__116reverse_iteratorINS0_IPNS_12basic_stringIcNS_11char_traitsIcEENS_9allocatorIcEEEEEEEptB8ue170006Ev, symObjAddr: 0x6A98, symBinAddr: 0x10000A660, symSize: 0x24 }
  - { offsetInCU: 0x11EEC, offset: 0x11EEC, size: 0x8, addend: 0x0, symName: __ZNKSt3__116reverse_iteratorINS0_IPNS_12basic_stringIcNS_11char_traitsIcEENS_9allocatorIcEEEEEEEdeB8ue170006Ev, symObjAddr: 0x6ABC, symBinAddr: 0x10000A684, symSize: 0x34 }
  - { offsetInCU: 0x11F1F, offset: 0x11F1F, size: 0x8, addend: 0x0, symName: __ZNSt3__116reverse_iteratorIPNS_12basic_stringIcNS_11char_traitsIcEENS_9allocatorIcEEEEEmmB8ue170006Ev, symObjAddr: 0x6AF0, symBinAddr: 0x10000A6B8, symSize: 0x20 }
  - { offsetInCU: 0x11F44, offset: 0x11F44, size: 0x8, addend: 0x0, symName: __ZNSt3__116reverse_iteratorINS0_IPNS_12basic_stringIcNS_11char_traitsIcEENS_9allocatorIcEEEEEEEC2B8ue170006ES8_, symObjAddr: 0x6B10, symBinAddr: 0x10000A6D8, symSize: 0x2C }
  - { offsetInCU: 0x11F7B, offset: 0x11F7B, size: 0x8, addend: 0x0, symName: __ZNSt3__116reverse_iteratorIPNS_12basic_stringIcNS_11char_traitsIcEENS_9allocatorIcEEEEEC2B8ue170006ES7_, symObjAddr: 0x6B3C, symBinAddr: 0x10000A704, symSize: 0x28 }
  - { offsetInCU: 0x11FB2, offset: 0x11FB2, size: 0x8, addend: 0x0, symName: __ZNSt3__114__split_bufferINS_12basic_stringIcNS_11char_traitsIcEENS_9allocatorIcEEEERNS4_IS6_EEED2Ev, symObjAddr: 0x6B64, symBinAddr: 0x10000A72C, symSize: 0x8C }
  - { offsetInCU: 0x11FDD, offset: 0x11FDD, size: 0x8, addend: 0x0, symName: __ZNSt3__114__split_bufferINS_12basic_stringIcNS_11char_traitsIcEENS_9allocatorIcEEEERNS4_IS6_EEE5clearB8ue170006Ev, symObjAddr: 0x6BF0, symBinAddr: 0x10000A7B8, symSize: 0x28 }
  - { offsetInCU: 0x12002, offset: 0x12002, size: 0x8, addend: 0x0, symName: __ZNSt3__116allocator_traitsINS_9allocatorINS_12basic_stringIcNS_11char_traitsIcEENS1_IcEEEEEEE10deallocateB8ue170006ERS7_PS6_m, symObjAddr: 0x6C18, symBinAddr: 0x10000A7E0, symSize: 0x34 }
  - { offsetInCU: 0x12044, offset: 0x12044, size: 0x8, addend: 0x0, symName: __ZNKSt3__114__split_bufferINS_12basic_stringIcNS_11char_traitsIcEENS_9allocatorIcEEEERNS4_IS6_EEE8capacityB8ue170006Ev, symObjAddr: 0x6C4C, symBinAddr: 0x10000A814, symSize: 0x40 }
  - { offsetInCU: 0x12069, offset: 0x12069, size: 0x8, addend: 0x0, symName: __ZNSt3__114__split_bufferINS_12basic_stringIcNS_11char_traitsIcEENS_9allocatorIcEEEERNS4_IS6_EEE17__destruct_at_endB8ue170006EPS6_, symObjAddr: 0x6C8C, symBinAddr: 0x10000A854, symSize: 0x2C }
  - { offsetInCU: 0x1209B, offset: 0x1209B, size: 0x8, addend: 0x0, symName: __ZNSt3__114__split_bufferINS_12basic_stringIcNS_11char_traitsIcEENS_9allocatorIcEEEERNS4_IS6_EEE17__destruct_at_endB8ue170006EPS6_NS_17integral_constantIbLb0EEE, symObjAddr: 0x6CB8, symBinAddr: 0x10000A880, symSize: 0x80 }
  - { offsetInCU: 0x120DA, offset: 0x120DA, size: 0x8, addend: 0x0, symName: __ZNSt3__19allocatorINS_12basic_stringIcNS_11char_traitsIcEENS0_IcEEEEE10deallocateB8ue170006EPS5_m, symObjAddr: 0x6D38, symBinAddr: 0x10000A900, symSize: 0x44 }
  - { offsetInCU: 0x1211B, offset: 0x1211B, size: 0x8, addend: 0x0, symName: __ZNKSt3__114__split_bufferINS_12basic_stringIcNS_11char_traitsIcEENS_9allocatorIcEEEERNS4_IS6_EEE9__end_capB8ue170006Ev, symObjAddr: 0x6D7C, symBinAddr: 0x10000A944, symSize: 0x28 }
  - { offsetInCU: 0x12140, offset: 0x12140, size: 0x8, addend: 0x0, symName: __ZNKSt3__117__compressed_pairIPNS_12basic_stringIcNS_11char_traitsIcEENS_9allocatorIcEEEERNS4_IS6_EEE5firstB8ue170006Ev, symObjAddr: 0x6DA4, symBinAddr: 0x10000A96C, symSize: 0x24 }
  - { offsetInCU: 0x12165, offset: 0x12165, size: 0x8, addend: 0x0, symName: __ZNKSt3__111__wrap_iterIPNS_12basic_stringIcNS_11char_traitsIcEENS_9allocatorIcEEEEE4baseB8ue170006Ev, symObjAddr: 0x6E10, symBinAddr: 0x10000A9D8, symSize: 0x18 }
  - { offsetInCU: 0x1218A, offset: 0x1218A, size: 0x8, addend: 0x0, symName: __ZNSt3__16vectorINS_12basic_stringIcNS_11char_traitsIcEENS_9allocatorIcEEEENS4_IS6_EEED2B8ue170006Ev, symObjAddr: 0x6E28, symBinAddr: 0x10000A9F0, symSize: 0x44 }
  - { offsetInCU: 0x121B3, offset: 0x121B3, size: 0x8, addend: 0x0, symName: __ZNSt3__16vectorINS_12basic_stringIcNS_11char_traitsIcEENS_9allocatorIcEEEENS4_IS6_EEE16__destroy_vectorC1B8ue170006ERS8_, symObjAddr: 0x6E6C, symBinAddr: 0x10000AA34, symSize: 0x34 }
  - { offsetInCU: 0x121EB, offset: 0x121EB, size: 0x8, addend: 0x0, symName: __ZNSt3__16vectorINS_12basic_stringIcNS_11char_traitsIcEENS_9allocatorIcEEEENS4_IS6_EEE16__destroy_vectorclB8ue170006Ev, symObjAddr: 0x6EA0, symBinAddr: 0x10000AA68, symSize: 0x90 }
  - { offsetInCU: 0x12210, offset: 0x12210, size: 0x8, addend: 0x0, symName: __ZNSt3__16vectorINS_12basic_stringIcNS_11char_traitsIcEENS_9allocatorIcEEEENS4_IS6_EEE16__destroy_vectorC2B8ue170006ERS8_, symObjAddr: 0x6F30, symBinAddr: 0x10000AAF8, symSize: 0x20 }
  - { offsetInCU: 0x12248, offset: 0x12248, size: 0x8, addend: 0x0, symName: __ZNSt3__16vectorINS_12basic_stringIcNS_11char_traitsIcEENS_9allocatorIcEEEENS4_IS6_EEE7__clearB8ue170006Ev, symObjAddr: 0x6F50, symBinAddr: 0x10000AB18, symSize: 0x28 }
  - { offsetInCU: 0x1226D, offset: 0x1226D, size: 0x8, addend: 0x0, symName: __ZNSt3__16vectorINS_12basic_stringIcNS_11char_traitsIcEENS_9allocatorIcEEEENS4_IS6_EEE22__base_destruct_at_endB8ue170006EPS6_, symObjAddr: 0x6F78, symBinAddr: 0x10000AB40, symSize: 0x8C }
  - { offsetInCU: 0x122CE, offset: 0x122CE, size: 0x8, addend: 0x0, symName: __ZNKSt3__113basic_ostreamIcNS_11char_traitsIcEEE6sentrycvbB8ue170006Ev, symObjAddr: 0x71F0, symBinAddr: 0x10000ADB8, symSize: 0x1C }
  - { offsetInCU: 0x122F3, offset: 0x122F3, size: 0x8, addend: 0x0, symName: __ZNSt3__119ostreambuf_iteratorIcNS_11char_traitsIcEEEC1B8ue170006ERNS_13basic_ostreamIcS2_EE, symObjAddr: 0x744C, symBinAddr: 0x10000B014, symSize: 0x34 }
  - { offsetInCU: 0x1232A, offset: 0x1232A, size: 0x8, addend: 0x0, symName: __ZNKSt3__18ios_base5flagsB8ue170006Ev, symObjAddr: 0x7480, symBinAddr: 0x10000B048, symSize: 0x18 }
  - { offsetInCU: 0x12350, offset: 0x12350, size: 0x8, addend: 0x0, symName: __ZNKSt3__19basic_iosIcNS_11char_traitsIcEEE4fillB8ue170006Ev, symObjAddr: 0x7498, symBinAddr: 0x10000B060, symSize: 0x64 }
  - { offsetInCU: 0x12377, offset: 0x12377, size: 0x8, addend: 0x0, symName: __ZNKSt3__119ostreambuf_iteratorIcNS_11char_traitsIcEEE6failedB8ue170006Ev, symObjAddr: 0x74FC, symBinAddr: 0x10000B0C4, symSize: 0x24 }
  - { offsetInCU: 0x1239C, offset: 0x1239C, size: 0x8, addend: 0x0, symName: __ZNSt3__19basic_iosIcNS_11char_traitsIcEEE8setstateB8ue170006Ej, symObjAddr: 0x7520, symBinAddr: 0x10000B0E8, symSize: 0x2C }
  - { offsetInCU: 0x123D0, offset: 0x123D0, size: 0x8, addend: 0x0, symName: __ZNKSt3__18ios_base5widthB8ue170006Ev, symObjAddr: 0x754C, symBinAddr: 0x10000B114, symSize: 0x18 }
  - { offsetInCU: 0x123F7, offset: 0x123F7, size: 0x8, addend: 0x0, symName: __ZNSt3__115basic_streambufIcNS_11char_traitsIcEEE5sputnB8ue170006EPKcl, symObjAddr: 0x7564, symBinAddr: 0x10000B12C, symSize: 0x3C }
  - { offsetInCU: 0x12438, offset: 0x12438, size: 0x8, addend: 0x0, symName: __ZNSt3__112basic_stringIcNS_11char_traitsIcEENS_9allocatorIcEEEC1B8ue170006Emc, symObjAddr: 0x75A0, symBinAddr: 0x10000B168, symSize: 0x3C }
  - { offsetInCU: 0x1247F, offset: 0x1247F, size: 0x8, addend: 0x0, symName: __ZNSt3__18ios_base5widthB8ue170006El, symObjAddr: 0x75DC, symBinAddr: 0x10000B1A4, symSize: 0x2C }
  - { offsetInCU: 0x124C4, offset: 0x124C4, size: 0x8, addend: 0x0, symName: __ZNSt3__112basic_stringIcNS_11char_traitsIcEENS_9allocatorIcEEEC2B8ue170006Emc, symObjAddr: 0x7608, symBinAddr: 0x10000B1D0, symSize: 0x4C }
  - { offsetInCU: 0x1250B, offset: 0x1250B, size: 0x8, addend: 0x0, symName: __ZNSt3__119ostreambuf_iteratorIcNS_11char_traitsIcEEEC2B8ue170006ERNS_13basic_ostreamIcS2_EE, symObjAddr: 0x7654, symBinAddr: 0x10000B21C, symSize: 0x54 }
  - { offsetInCU: 0x12541, offset: 0x12541, size: 0x8, addend: 0x0, symName: __ZNKSt3__19basic_iosIcNS_11char_traitsIcEEE5rdbufB8ue170006Ev, symObjAddr: 0x76A8, symBinAddr: 0x10000B270, symSize: 0x24 }
  - { offsetInCU: 0x12568, offset: 0x12568, size: 0x8, addend: 0x0, symName: __ZNKSt3__18ios_base5rdbufB8ue170006Ev, symObjAddr: 0x76CC, symBinAddr: 0x10000B294, symSize: 0x18 }
  - { offsetInCU: 0x1258D, offset: 0x1258D, size: 0x8, addend: 0x0, symName: __ZNSt3__111char_traitsIcE11eq_int_typeB8ue170006Eii, symObjAddr: 0x76E4, symBinAddr: 0x10000B2AC, symSize: 0x28 }
  - { offsetInCU: 0x125C0, offset: 0x125C0, size: 0x8, addend: 0x0, symName: __ZNSt3__111char_traitsIcE3eofB8ue170006Ev, symObjAddr: 0x770C, symBinAddr: 0x10000B2D4, symSize: 0x8 }
  - { offsetInCU: 0x125D3, offset: 0x125D3, size: 0x8, addend: 0x0, symName: __ZNKSt3__19basic_iosIcNS_11char_traitsIcEEE5widenB8ue170006Ec, symObjAddr: 0x7714, symBinAddr: 0x10000B2DC, symSize: 0x84 }
  - { offsetInCU: 0x1263B, offset: 0x1263B, size: 0x8, addend: 0x0, symName: __ZNKSt3__15ctypeIcE5widenB8ue170006Ec, symObjAddr: 0x77C4, symBinAddr: 0x10000B38C, symSize: 0x38 }
  - { offsetInCU: 0x1266E, offset: 0x1266E, size: 0x8, addend: 0x0, symName: __ZNSt3__18ios_base8setstateB8ue170006Ej, symObjAddr: 0x77FC, symBinAddr: 0x10000B3C4, symSize: 0x34 }
  - { offsetInCU: 0x126A4, offset: 0x126A4, size: 0x8, addend: 0x0, symName: __ZNSt3__16vectorINS_12basic_stringIcNS_11char_traitsIcEENS_9allocatorIcEEEENS4_IS6_EEE11__make_iterB8ue170006EPS6_, symObjAddr: 0x7830, symBinAddr: 0x10000B3F8, symSize: 0x30 }
  - { offsetInCU: 0x126D8, offset: 0x126D8, size: 0x8, addend: 0x0, symName: __ZNSt3__111__wrap_iterIPNS_12basic_stringIcNS_11char_traitsIcEENS_9allocatorIcEEEEEC1B8ue170006ES7_, symObjAddr: 0x7860, symBinAddr: 0x10000B428, symSize: 0x34 }
  - { offsetInCU: 0x1270F, offset: 0x1270F, size: 0x8, addend: 0x0, symName: __ZNSt3__111__wrap_iterIPNS_12basic_stringIcNS_11char_traitsIcEENS_9allocatorIcEEEEEC2B8ue170006ES7_, symObjAddr: 0x7894, symBinAddr: 0x10000B45C, symSize: 0x20 }
...
