---
triple:          'arm64-apple-darwin'
binary-path:     '/Users/sajidhasan/VSCODE/test1'
relocations:
  - { offsetInCU: 0x510E, offset: 0x510E, size: 0x8, addend: 0x0, symName: __ZNSt3__16uniqueB8ue170006INS_11__wrap_iterIPiEEEET_S4_S4_, symObjAddr: 0x2FC, symBinAddr: 0x1000017D0, symSize: 0x44 }
  - { offsetInCU: 0x516D, offset: 0x516D, size: 0x8, addend: 0x0, symName: __ZNSt3__1neB8ue170006IPiEEbRKNS_11__wrap_iterIT_EES6_, symObjAddr: 0x4AC, symBinAddr: 0x100001980, symSize: 0x34 }
  - { offsetInCU: 0x5DEB, offset: 0x5DEB, size: 0x8, addend: 0x0, symName: __ZNSt3__14endlB8ue170006IcNS_11char_traitsIcEEEERNS_13basic_ostreamIT_T0_EES7_, symObjAddr: 0x524, symBinAddr: 0x1000019F8, symSize: 0x58 }
  - { offsetInCU: 0x5E2B, offset: 0x5E2B, size: 0x8, addend: 0x0, symName: __ZNSt3__1eqB8ue170006IPiEEbRKNS_11__wrap_iterIT_EES6_, symObjAddr: 0x784, symBinAddr: 0x100001C58, symSize: 0x48 }
  - { offsetInCU: 0x5E6E, offset: 0x5E6E, size: 0x8, addend: 0x0, symName: __ZNSt3__122__make_exception_guardB8ue170006INS_6vectorIiNS_9allocatorIiEEE16__destroy_vectorEEENS_28__exception_guard_exceptionsIT_EES7_, symObjAddr: 0x8DC, symBinAddr: 0x100001DB0, symSize: 0x40 }
  - { offsetInCU: 0x5EA3, offset: 0x5EA3, size: 0x8, addend: 0x0, symName: __ZNSt3__119__allocate_at_leastB8ue170006INS_9allocatorIiEEEENS_19__allocation_resultINS_16allocator_traitsIT_E7pointerEEERS5_m, symObjAddr: 0xCC8, symBinAddr: 0x10000219C, symSize: 0x40 }
  - { offsetInCU: 0x5EE6, offset: 0x5EE6, size: 0x8, addend: 0x0, symName: __ZNSt3__13minB8ue170006ImEERKT_S3_S3_, symObjAddr: 0xE04, symBinAddr: 0x1000022D8, symSize: 0x2C }
  - { offsetInCU: 0x612A, offset: 0x612A, size: 0x8, addend: 0x0, symName: __ZNSt3__13minB8ue170006ImNS_6__lessIvvEEEERKT_S5_S5_T0_, symObjAddr: 0xE9C, symBinAddr: 0x100002370, symSize: 0x54 }
  - { offsetInCU: 0x61C9, offset: 0x61C9, size: 0x8, addend: 0x0, symName: __ZNSt3__120__throw_length_errorB8ue170006EPKc, symObjAddr: 0xF78, symBinAddr: 0x10000244C, symSize: 0x64 }
  - { offsetInCU: 0x61F3, offset: 0x61F3, size: 0x8, addend: 0x0, symName: __ZNSt3__117__libcpp_allocateB8ue170006Emm, symObjAddr: 0x10E8, symBinAddr: 0x1000025BC, symSize: 0x28 }
  - { offsetInCU: 0x6230, offset: 0x6230, size: 0x8, addend: 0x0, symName: __ZNSt3__121__libcpp_operator_newB8ue170006IJmEEEPvDpT_, symObjAddr: 0x1110, symBinAddr: 0x1000025E4, symSize: 0x24 }
  - { offsetInCU: 0x6269, offset: 0x6269, size: 0x8, addend: 0x0, symName: __ZNSt3__112__to_addressB8ue170006IiEEPT_S2_, symObjAddr: 0x122C, symBinAddr: 0x100002700, symSize: 0x14 }
  - { offsetInCU: 0x629E, offset: 0x629E, size: 0x8, addend: 0x0, symName: __ZNSt3__119__libcpp_deallocateB8ue170006EPvmm, symObjAddr: 0x16B4, symBinAddr: 0x100002B88, symSize: 0x30 }
  - { offsetInCU: 0x62E6, offset: 0x62E6, size: 0x8, addend: 0x0, symName: __ZNSt3__127__do_deallocate_handle_sizeB8ue170006IJEEEvPvmDpT_, symObjAddr: 0x16E4, symBinAddr: 0x100002BB8, symSize: 0x28 }
  - { offsetInCU: 0x6324, offset: 0x6324, size: 0x8, addend: 0x0, symName: __ZNSt3__124__libcpp_operator_deleteB8ue170006IJPvEEEvDpT_, symObjAddr: 0x170C, symBinAddr: 0x100002BE0, symSize: 0x24 }
  - { offsetInCU: 0x6359, offset: 0x6359, size: 0x8, addend: 0x0, symName: __ZNSt3__16uniqueB8ue170006INS_11__wrap_iterIPiEENS_10__equal_toEEET_S5_S5_T0_, symObjAddr: 0x17F4, symBinAddr: 0x100002CC8, symSize: 0x54 }
  - { offsetInCU: 0x63B3, offset: 0x63B3, size: 0x8, addend: 0x0, symName: __ZNSt3__18__uniqueB8ue170006INS_17_ClassicAlgPolicyENS_11__wrap_iterIPiEES4_RNS_10__equal_toEEENS_4pairIT0_S8_EES8_T1_OT2_, symObjAddr: 0x1848, symBinAddr: 0x100002D1C, symSize: 0x140 }
  - { offsetInCU: 0x643B, offset: 0x643B, size: 0x8, addend: 0x0, symName: __ZNSt3__115__adjacent_findB8ue170006INS_11__wrap_iterIPiEES3_RNS_10__equal_toEEET_S6_T0_OT1_, symObjAddr: 0x1988, symBinAddr: 0x100002E5C, symSize: 0xCC }
  - { offsetInCU: 0x665D, offset: 0x665D, size: 0x8, addend: 0x0, symName: __ZNSt3__1miB8ue170006IPKiPiEEDTmicldtfp_4baseEcldtfp0_4baseEERKNS_11__wrap_iterIT_EERKNS5_IT0_EE, symObjAddr: 0x1B94, symBinAddr: 0x100003068, symSize: 0x48 }
  - { offsetInCU: 0x66A9, offset: 0x66A9, size: 0x8, addend: 0x0, symName: __ZNSt3__1neB8ue170006IPKiEEbRKNS_11__wrap_iterIT_EES7_, symObjAddr: 0x1BDC, symBinAddr: 0x1000030B0, symSize: 0x34 }
  - { offsetInCU: 0x66EC, offset: 0x66EC, size: 0x8, addend: 0x0, symName: __ZNSt3__14moveB8ue170006IPiS1_EET0_T_S3_S2_, symObjAddr: 0x1C5C, symBinAddr: 0x100003130, symSize: 0x40 }
  - { offsetInCU: 0x6746, offset: 0x6746, size: 0x8, addend: 0x0, symName: __ZNSt3__1miB8ue170006IPKiS2_EEDTmicldtfp_4baseEcldtfp0_4baseEERKNS_11__wrap_iterIT_EERKNS4_IT0_EE, symObjAddr: 0x1C9C, symBinAddr: 0x100003170, symSize: 0x48 }
  - { offsetInCU: 0x6792, offset: 0x6792, size: 0x8, addend: 0x0, symName: __ZNSt3__1eqB8ue170006IPKiEEbRKNS_11__wrap_iterIT_EES7_, symObjAddr: 0x1CFC, symBinAddr: 0x1000031D0, symSize: 0x48 }
  - { offsetInCU: 0x67D5, offset: 0x67D5, size: 0x8, addend: 0x0, symName: __ZNSt3__16__moveB8ue170006INS_17_ClassicAlgPolicyEPiS2_S2_EENS_4pairIT0_T2_EES4_T1_S5_, symObjAddr: 0x1DF8, symBinAddr: 0x1000032CC, symSize: 0x44 }
  - { offsetInCU: 0x6841, offset: 0x6841, size: 0x8, addend: 0x0, symName: __ZNSt3__123__dispatch_copy_or_moveB8ue170006INS_17_ClassicAlgPolicyENS_11__move_loopIS1_EENS_14__move_trivialEPiS5_S5_EENS_4pairIT2_T4_EES7_T3_S8_, symObjAddr: 0x1E3C, symBinAddr: 0x100003310, symSize: 0x44 }
  - { offsetInCU: 0x68BF, offset: 0x68BF, size: 0x8, addend: 0x0, symName: __ZNSt3__121__unwrap_and_dispatchB8ue170006INS_10__overloadINS_11__move_loopINS_17_ClassicAlgPolicyEEENS_14__move_trivialEEEPiS7_S7_Li0EEENS_4pairIT0_T2_EES9_T1_SA_, symObjAddr: 0x1E80, symBinAddr: 0x100003354, symSize: 0xB4 }
  - { offsetInCU: 0x694D, offset: 0x694D, size: 0x8, addend: 0x0, symName: __ZNSt3__114__unwrap_rangeB8ue170006IPiS1_EENS_4pairIT0_S3_EET_S5_, symObjAddr: 0x1F34, symBinAddr: 0x100003408, symSize: 0x60 }
  - { offsetInCU: 0x6AE2, offset: 0x6AE2, size: 0x8, addend: 0x0, symName: __ZNSt3__113__unwrap_iterB8ue170006IPiNS_18__unwrap_iter_implIS1_Lb1EEELi0EEEDTclsrT0_8__unwrapclsr3stdE7declvalIT_EEEES5_, symObjAddr: 0x1FDC, symBinAddr: 0x1000034B0, symSize: 0x24 }
  - { offsetInCU: 0x6B26, offset: 0x6B26, size: 0x8, addend: 0x0, symName: __ZNSt3__19make_pairB8ue170006IPiS1_EENS_4pairINS_18__unwrap_ref_decayIT_E4typeENS3_IT0_E4typeEEEOS4_OS7_, symObjAddr: 0x2000, symBinAddr: 0x1000034D4, symSize: 0x38 }
  - { offsetInCU: 0x6B75, offset: 0x6B75, size: 0x8, addend: 0x0, symName: __ZNSt3__114__rewrap_rangeB8ue170006IPiS1_EET_S2_T0_, symObjAddr: 0x2038, symBinAddr: 0x10000350C, symSize: 0x2C }
  - { offsetInCU: 0x6BC1, offset: 0x6BC1, size: 0x8, addend: 0x0, symName: __ZNSt3__113__rewrap_iterB8ue170006IPiS1_NS_18__unwrap_iter_implIS1_Lb1EEEEET_S4_T0_, symObjAddr: 0x2064, symBinAddr: 0x100003538, symSize: 0x3C }
  - { offsetInCU: 0x6C16, offset: 0x6C16, size: 0x8, addend: 0x0, symName: __ZNSt3__119__copy_trivial_implB8ue170006IiiEENS_4pairIPT_PT0_EES3_S3_S5_, symObjAddr: 0x20A0, symBinAddr: 0x100003574, symSize: 0x80 }
  - { offsetInCU: 0x6C7E, offset: 0x6C7E, size: 0x8, addend: 0x0, symName: __ZNSt3__119__constexpr_memmoveB8ue170006IiiLi0EEEPT_S2_PT0_NS_15__element_countE, symObjAddr: 0x2120, symBinAddr: 0x1000035F4, symSize: 0x64 }
  - { offsetInCU: 0x6CEC, offset: 0x6CEC, size: 0x8, addend: 0x0, symName: __ZNSt3__19make_pairB8ue170006IRPiS1_EENS_4pairINS_18__unwrap_ref_decayIT_E4typeENS4_IT0_E4typeEEEOS5_OS8_, symObjAddr: 0x2184, symBinAddr: 0x100003658, symSize: 0x38 }
  - { offsetInCU: 0x6D8E, offset: 0x6D8E, size: 0x8, addend: 0x0, symName: __ZNSt3__19use_facetB8ue170006INS_5ctypeIcEEEERKT_RKNS_6localeE, symObjAddr: 0x2394, symBinAddr: 0x100003868, symSize: 0x2C }
  - { offsetInCU: 0x756B, offset: 0x756B, size: 0x8, addend: 0x0, symName: __ZSt28__throw_bad_array_new_lengthB8ue170006v, symObjAddr: 0x10B4, symBinAddr: 0x100002588, symSize: 0x34 }
  - { offsetInCU: 0x9C1D, offset: 0x9C1D, size: 0x8, addend: 0x0, symName: __Z12hasDuplicateRNSt3__16vectorIiNS_9allocatorIiEEEE, symObjAddr: 0x0, symBinAddr: 0x1000014D4, symSize: 0x27C }
  - { offsetInCU: 0x9CD8, offset: 0x9CD8, size: 0x8, addend: 0x0, symName: __ZNKSt3__16vectorIiNS_9allocatorIiEEE4sizeB8ue170006Ev, symObjAddr: 0x27C, symBinAddr: 0x100001750, symSize: 0x28 }
  - { offsetInCU: 0x9CFE, offset: 0x9CFE, size: 0x8, addend: 0x0, symName: __ZNSt3__16vectorIiNS_9allocatorIiEEEC1Em, symObjAddr: 0x2A4, symBinAddr: 0x100001778, symSize: 0x34 }
  - { offsetInCU: 0x9D39, offset: 0x9D39, size: 0x8, addend: 0x0, symName: __ZNSt3__16vectorIiNS_9allocatorIiEEEixB8ue170006Em, symObjAddr: 0x2D8, symBinAddr: 0x1000017AC, symSize: 0x24 }
  - { offsetInCU: 0x9D70, offset: 0x9D70, size: 0x8, addend: 0x0, symName: __ZNSt3__16vectorIiNS_9allocatorIiEEE5beginB8ue170006Ev, symObjAddr: 0x340, symBinAddr: 0x100001814, symSize: 0x30 }
  - { offsetInCU: 0x9D98, offset: 0x9D98, size: 0x8, addend: 0x0, symName: __ZNSt3__16vectorIiNS_9allocatorIiEEE3endB8ue170006Ev, symObjAddr: 0x370, symBinAddr: 0x100001844, symSize: 0x30 }
  - { offsetInCU: 0x9DC0, offset: 0x9DC0, size: 0x8, addend: 0x0, symName: __ZNSt3__16vectorIiNS_9allocatorIiEEE5eraseENS_11__wrap_iterIPKiEES7_, symObjAddr: 0x3A0, symBinAddr: 0x100001874, symSize: 0xD0 }
  - { offsetInCU: 0x9E20, offset: 0x9E20, size: 0x8, addend: 0x0, symName: __ZNSt3__111__wrap_iterIPKiEC1B8ue170006IPiEERKNS0_IT_EEPNS_9enable_ifIXsr14is_convertibleIS6_S2_EE5valueEvE4typeE, symObjAddr: 0x470, symBinAddr: 0x100001944, symSize: 0x3C }
  - { offsetInCU: 0x9E6C, offset: 0x9E6C, size: 0x8, addend: 0x0, symName: __ZNKSt3__111__wrap_iterIPiEdeB8ue170006Ev, symObjAddr: 0x4E0, symBinAddr: 0x1000019B4, symSize: 0x18 }
  - { offsetInCU: 0x9F3F, offset: 0x9F3F, size: 0x8, addend: 0x0, symName: __ZNSt3__113basic_ostreamIcNS_11char_traitsIcEEElsB8ue170006EPFRS3_S4_E, symObjAddr: 0x4F8, symBinAddr: 0x1000019CC, symSize: 0x2C }
  - { offsetInCU: 0x9F73, offset: 0x9F73, size: 0x8, addend: 0x0, symName: __ZNSt3__111__wrap_iterIPiEppB8ue170006Ev, symObjAddr: 0x57C, symBinAddr: 0x100001A50, symSize: 0x20 }
  - { offsetInCU: 0x9F99, offset: 0x9F99, size: 0x8, addend: 0x0, symName: __ZNSt3__16vectorIiNS_9allocatorIiEEED1B8ue170006Ev, symObjAddr: 0x59C, symBinAddr: 0x100001A70, symSize: 0x2C }
  - { offsetInCU: 0x9FC3, offset: 0x9FC3, size: 0x8, addend: 0x0, symName: _main, symObjAddr: 0x5C8, symBinAddr: 0x100001A9C, symSize: 0x114 }
  - { offsetInCU: 0xA02B, offset: 0xA02B, size: 0x8, addend: 0x0, symName: __ZNSt3__112basic_stringIcNS_11char_traitsIcEENS_9allocatorIcEEEC1B8ue170006Ev, symObjAddr: 0x6DC, symBinAddr: 0x100001BB0, symSize: 0x2C }
  - { offsetInCU: 0xA055, offset: 0xA055, size: 0x8, addend: 0x0, symName: __ZNKSt3__112basic_stringIcNS_11char_traitsIcEENS_9allocatorIcEEE6lengthB8ue170006Ev, symObjAddr: 0x708, symBinAddr: 0x100001BDC, symSize: 0x24 }
  - { offsetInCU: 0xA07B, offset: 0xA07B, size: 0x8, addend: 0x0, symName: __ZNSt3__111__wrap_iterIPKiEC2B8ue170006IPiEERKNS0_IT_EEPNS_9enable_ifIXsr14is_convertibleIS6_S2_EE5valueEvE4typeE, symObjAddr: 0x72C, symBinAddr: 0x100001C00, symSize: 0x40 }
  - { offsetInCU: 0xA0C7, offset: 0xA0C7, size: 0x8, addend: 0x0, symName: __ZNKSt3__111__wrap_iterIPiE4baseB8ue170006Ev, symObjAddr: 0x76C, symBinAddr: 0x100001C40, symSize: 0x18 }
  - { offsetInCU: 0xA0ED, offset: 0xA0ED, size: 0x8, addend: 0x0, symName: __ZNSt3__16vectorIiNS_9allocatorIiEEEC2Em, symObjAddr: 0x7CC, symBinAddr: 0x100001CA0, symSize: 0xD4 }
  - { offsetInCU: 0xA149, offset: 0xA149, size: 0x8, addend: 0x0, symName: __ZNSt3__117__compressed_pairIPiNS_9allocatorIiEEEC1B8ue170006IDnNS_18__default_init_tagEEEOT_OT0_, symObjAddr: 0x8A0, symBinAddr: 0x100001D74, symSize: 0x3C }
  - { offsetInCU: 0xA1A1, offset: 0xA1A1, size: 0x8, addend: 0x0, symName: __ZNSt3__16vectorIiNS_9allocatorIiEEE16__destroy_vectorC1B8ue170006ERS3_, symObjAddr: 0x91C, symBinAddr: 0x100001DF0, symSize: 0x34 }
  - { offsetInCU: 0xA1DA, offset: 0xA1DA, size: 0x8, addend: 0x0, symName: __ZNSt3__16vectorIiNS_9allocatorIiEEE11__vallocateB8ue170006Em, symObjAddr: 0x950, symBinAddr: 0x100001E24, symSize: 0xAC }
  - { offsetInCU: 0xA21F, offset: 0xA21F, size: 0x8, addend: 0x0, symName: __ZNSt3__16vectorIiNS_9allocatorIiEEE18__construct_at_endEm, symObjAddr: 0x9FC, symBinAddr: 0x100001ED0, symSize: 0xC8 }
  - { offsetInCU: 0xA294, offset: 0xA294, size: 0x8, addend: 0x0, symName: __ZNSt3__128__exception_guard_exceptionsINS_6vectorIiNS_9allocatorIiEEE16__destroy_vectorEE10__completeB8ue170006Ev, symObjAddr: 0xAC4, symBinAddr: 0x100001F98, symSize: 0x1C }
  - { offsetInCU: 0xA2BA, offset: 0xA2BA, size: 0x8, addend: 0x0, symName: __ZNSt3__128__exception_guard_exceptionsINS_6vectorIiNS_9allocatorIiEEE16__destroy_vectorEED1B8ue170006Ev, symObjAddr: 0xAE0, symBinAddr: 0x100001FB4, symSize: 0x2C }
  - { offsetInCU: 0xA2E4, offset: 0xA2E4, size: 0x8, addend: 0x0, symName: __ZNSt3__117__compressed_pairIPiNS_9allocatorIiEEEC2B8ue170006IDnNS_18__default_init_tagEEEOT_OT0_, symObjAddr: 0xB0C, symBinAddr: 0x100001FE0, symSize: 0x40 }
  - { offsetInCU: 0xA33C, offset: 0xA33C, size: 0x8, addend: 0x0, symName: __ZNSt3__122__compressed_pair_elemIPiLi0ELb0EEC2B8ue170006IDnvEEOT_, symObjAddr: 0xB4C, symBinAddr: 0x100002020, symSize: 0x1C }
  - { offsetInCU: 0xA37E, offset: 0xA37E, size: 0x8, addend: 0x0, symName: __ZNSt3__122__compressed_pair_elemINS_9allocatorIiEELi1ELb1EEC2B8ue170006ENS_18__default_init_tagE, symObjAddr: 0xB68, symBinAddr: 0x10000203C, symSize: 0x2C }
  - { offsetInCU: 0xA3B3, offset: 0xA3B3, size: 0x8, addend: 0x0, symName: __ZNSt3__19allocatorIiEC2B8ue170006Ev, symObjAddr: 0xB94, symBinAddr: 0x100002068, symSize: 0x2C }
  - { offsetInCU: 0xA3DD, offset: 0xA3DD, size: 0x8, addend: 0x0, symName: __ZNSt3__116__non_trivial_ifILb1ENS_9allocatorIiEEEC2B8ue170006Ev, symObjAddr: 0xBC0, symBinAddr: 0x100002094, symSize: 0x14 }
  - { offsetInCU: 0xA407, offset: 0xA407, size: 0x8, addend: 0x0, symName: __ZNSt3__128__exception_guard_exceptionsINS_6vectorIiNS_9allocatorIiEEE16__destroy_vectorEEC1B8ue170006ES5_, symObjAddr: 0xBD4, symBinAddr: 0x1000020A8, symSize: 0x34 }
  - { offsetInCU: 0xA43F, offset: 0xA43F, size: 0x8, addend: 0x0, symName: __ZNSt3__128__exception_guard_exceptionsINS_6vectorIiNS_9allocatorIiEEE16__destroy_vectorEEC2B8ue170006ES5_, symObjAddr: 0xC08, symBinAddr: 0x1000020DC, symSize: 0x24 }
  - { offsetInCU: 0xA477, offset: 0xA477, size: 0x8, addend: 0x0, symName: __ZNSt3__16vectorIiNS_9allocatorIiEEE16__destroy_vectorC2B8ue170006ERS3_, symObjAddr: 0xC2C, symBinAddr: 0x100002100, symSize: 0x20 }
  - { offsetInCU: 0xA4B0, offset: 0xA4B0, size: 0x8, addend: 0x0, symName: __ZNKSt3__16vectorIiNS_9allocatorIiEEE8max_sizeEv, symObjAddr: 0xC4C, symBinAddr: 0x100002120, symSize: 0x60 }
  - { offsetInCU: 0xA4D8, offset: 0xA4D8, size: 0x8, addend: 0x0, symName: __ZNKSt3__16vectorIiNS_9allocatorIiEEE20__throw_length_errorB8ue170006Ev, symObjAddr: 0xCAC, symBinAddr: 0x100002180, symSize: 0x1C }
  - { offsetInCU: 0xA4FE, offset: 0xA4FE, size: 0x8, addend: 0x0, symName: __ZNSt3__16vectorIiNS_9allocatorIiEEE7__allocB8ue170006Ev, symObjAddr: 0xD08, symBinAddr: 0x1000021DC, symSize: 0x28 }
  - { offsetInCU: 0xA524, offset: 0xA524, size: 0x8, addend: 0x0, symName: __ZNSt3__16vectorIiNS_9allocatorIiEEE9__end_capB8ue170006Ev, symObjAddr: 0xD30, symBinAddr: 0x100002204, symSize: 0x28 }
  - { offsetInCU: 0xA54A, offset: 0xA54A, size: 0x8, addend: 0x0, symName: __ZNKSt3__16vectorIiNS_9allocatorIiEEE14__annotate_newB8ue170006Em, symObjAddr: 0xD58, symBinAddr: 0x10000222C, symSize: 0xAC }
  - { offsetInCU: 0xA589, offset: 0xA589, size: 0x8, addend: 0x0, symName: __ZNSt3__116allocator_traitsINS_9allocatorIiEEE8max_sizeB8ue170006IS2_vEEmRKS2_, symObjAddr: 0xE30, symBinAddr: 0x100002304, symSize: 0x24 }
  - { offsetInCU: 0xA5B7, offset: 0xA5B7, size: 0x8, addend: 0x0, symName: __ZNKSt3__16vectorIiNS_9allocatorIiEEE7__allocB8ue170006Ev, symObjAddr: 0xE54, symBinAddr: 0x100002328, symSize: 0x28 }
  - { offsetInCU: 0xA5DD, offset: 0xA5DD, size: 0x8, addend: 0x0, symName: __ZNSt3__114numeric_limitsIlE3maxB8ue170006Ev, symObjAddr: 0xE7C, symBinAddr: 0x100002350, symSize: 0x14 }
  - { offsetInCU: 0xA605, offset: 0xA605, size: 0x8, addend: 0x0, symName: __ZNKSt3__16__lessIvvEclB8ue170006ImmEEbRKT_RKT0_, symObjAddr: 0xEF0, symBinAddr: 0x1000023C4, symSize: 0x34 }
  - { offsetInCU: 0xA659, offset: 0xA659, size: 0x8, addend: 0x0, symName: __ZNKSt3__19allocatorIiE8max_sizeB8ue170006Ev, symObjAddr: 0xF24, symBinAddr: 0x1000023F8, symSize: 0x14 }
  - { offsetInCU: 0xA67F, offset: 0xA67F, size: 0x8, addend: 0x0, symName: __ZNKSt3__117__compressed_pairIPiNS_9allocatorIiEEE6secondB8ue170006Ev, symObjAddr: 0xF38, symBinAddr: 0x10000240C, symSize: 0x24 }
  - { offsetInCU: 0xA6A5, offset: 0xA6A5, size: 0x8, addend: 0x0, symName: __ZNKSt3__122__compressed_pair_elemINS_9allocatorIiEELi1ELb1EE5__getB8ue170006Ev, symObjAddr: 0xF5C, symBinAddr: 0x100002430, symSize: 0x14 }
  - { offsetInCU: 0xA6CB, offset: 0xA6CB, size: 0x8, addend: 0x0, symName: __ZNSt3__123__libcpp_numeric_limitsIlLb1EE3maxB8ue170006Ev, symObjAddr: 0xF70, symBinAddr: 0x100002444, symSize: 0x8 }
  - { offsetInCU: 0xA6DF, offset: 0xA6DF, size: 0x8, addend: 0x0, symName: __ZNSt12length_errorC1B8ue170006EPKc, symObjAddr: 0xFDC, symBinAddr: 0x1000024B0, symSize: 0x34 }
  - { offsetInCU: 0xA717, offset: 0xA717, size: 0x8, addend: 0x0, symName: __ZNSt12length_errorC2B8ue170006EPKc, symObjAddr: 0x1010, symBinAddr: 0x1000024E4, symSize: 0x4C }
  - { offsetInCU: 0xA74F, offset: 0xA74F, size: 0x8, addend: 0x0, symName: __ZNSt3__19allocatorIiE8allocateB8ue170006Em, symObjAddr: 0x105C, symBinAddr: 0x100002530, symSize: 0x58 }
  - { offsetInCU: 0xA783, offset: 0xA783, size: 0x8, addend: 0x0, symName: __ZNSt3__117__compressed_pairIPiNS_9allocatorIiEEE6secondB8ue170006Ev, symObjAddr: 0x1134, symBinAddr: 0x100002608, symSize: 0x24 }
  - { offsetInCU: 0xA7A9, offset: 0xA7A9, size: 0x8, addend: 0x0, symName: __ZNSt3__122__compressed_pair_elemINS_9allocatorIiEELi1ELb1EE5__getB8ue170006Ev, symObjAddr: 0x1158, symBinAddr: 0x10000262C, symSize: 0x14 }
  - { offsetInCU: 0xA7CF, offset: 0xA7CF, size: 0x8, addend: 0x0, symName: __ZNSt3__117__compressed_pairIPiNS_9allocatorIiEEE5firstB8ue170006Ev, symObjAddr: 0x116C, symBinAddr: 0x100002640, symSize: 0x24 }
  - { offsetInCU: 0xA7F5, offset: 0xA7F5, size: 0x8, addend: 0x0, symName: __ZNSt3__122__compressed_pair_elemIPiLi0ELb0EE5__getB8ue170006Ev, symObjAddr: 0x1190, symBinAddr: 0x100002664, symSize: 0x14 }
  - { offsetInCU: 0xA81B, offset: 0xA81B, size: 0x8, addend: 0x0, symName: __ZNKSt3__16vectorIiNS_9allocatorIiEEE31__annotate_contiguous_containerB8ue170006EPKvS5_S5_S5_, symObjAddr: 0x11A4, symBinAddr: 0x100002678, symSize: 0x20 }
  - { offsetInCU: 0xA871, offset: 0xA871, size: 0x8, addend: 0x0, symName: __ZNKSt3__16vectorIiNS_9allocatorIiEEE4dataB8ue170006Ev, symObjAddr: 0x11C4, symBinAddr: 0x100002698, symSize: 0x28 }
  - { offsetInCU: 0xA897, offset: 0xA897, size: 0x8, addend: 0x0, symName: __ZNKSt3__16vectorIiNS_9allocatorIiEEE8capacityB8ue170006Ev, symObjAddr: 0x11EC, symBinAddr: 0x1000026C0, symSize: 0x40 }
  - { offsetInCU: 0xA8BD, offset: 0xA8BD, size: 0x8, addend: 0x0, symName: __ZNKSt3__16vectorIiNS_9allocatorIiEEE9__end_capB8ue170006Ev, symObjAddr: 0x1240, symBinAddr: 0x100002714, symSize: 0x28 }
  - { offsetInCU: 0xA8E3, offset: 0xA8E3, size: 0x8, addend: 0x0, symName: __ZNKSt3__117__compressed_pairIPiNS_9allocatorIiEEE5firstB8ue170006Ev, symObjAddr: 0x1268, symBinAddr: 0x10000273C, symSize: 0x24 }
  - { offsetInCU: 0xA909, offset: 0xA909, size: 0x8, addend: 0x0, symName: __ZNKSt3__122__compressed_pair_elemIPiLi0ELb0EE5__getB8ue170006Ev, symObjAddr: 0x128C, symBinAddr: 0x100002760, symSize: 0x14 }
  - { offsetInCU: 0xA948, offset: 0xA948, size: 0x8, addend: 0x0, symName: __ZNSt3__16vectorIiNS_9allocatorIiEEE21_ConstructTransactionC1B8ue170006ERS3_m, symObjAddr: 0x12A0, symBinAddr: 0x100002774, symSize: 0x3C }
  - { offsetInCU: 0xA990, offset: 0xA990, size: 0x8, addend: 0x0, symName: __ZNSt3__116allocator_traitsINS_9allocatorIiEEE9constructB8ue170006IiJEvEEvRS2_PT_DpOT0_, symObjAddr: 0x12DC, symBinAddr: 0x1000027B0, symSize: 0x2C }
  - { offsetInCU: 0xA9D2, offset: 0xA9D2, size: 0x8, addend: 0x0, symName: __ZNSt3__16vectorIiNS_9allocatorIiEEE21_ConstructTransactionD1B8ue170006Ev, symObjAddr: 0x1308, symBinAddr: 0x1000027DC, symSize: 0x2C }
  - { offsetInCU: 0xA9FC, offset: 0xA9FC, size: 0x8, addend: 0x0, symName: __ZNSt3__16vectorIiNS_9allocatorIiEEE21_ConstructTransactionC2B8ue170006ERS3_m, symObjAddr: 0x1334, symBinAddr: 0x100002808, symSize: 0x44 }
  - { offsetInCU: 0xAA44, offset: 0xAA44, size: 0x8, addend: 0x0, symName: __ZNSt3__19allocatorIiE9constructB8ue170006IiJEEEvPT_DpOT0_, symObjAddr: 0x1378, symBinAddr: 0x10000284C, symSize: 0x1C }
  - { offsetInCU: 0xAA86, offset: 0xAA86, size: 0x8, addend: 0x0, symName: __ZNSt3__16vectorIiNS_9allocatorIiEEE21_ConstructTransactionD2B8ue170006Ev, symObjAddr: 0x1394, symBinAddr: 0x100002868, symSize: 0x20 }
  - { offsetInCU: 0xAAB0, offset: 0xAAB0, size: 0x8, addend: 0x0, symName: __ZNSt3__128__exception_guard_exceptionsINS_6vectorIiNS_9allocatorIiEEE16__destroy_vectorEED2B8ue170006Ev, symObjAddr: 0x13B4, symBinAddr: 0x100002888, symSize: 0x50 }
  - { offsetInCU: 0xAADA, offset: 0xAADA, size: 0x8, addend: 0x0, symName: __ZNSt3__16vectorIiNS_9allocatorIiEEE16__destroy_vectorclB8ue170006Ev, symObjAddr: 0x1404, symBinAddr: 0x1000028D8, symSize: 0x90 }
  - { offsetInCU: 0xAB00, offset: 0xAB00, size: 0x8, addend: 0x0, symName: __ZNSt3__16vectorIiNS_9allocatorIiEEE7__clearB8ue170006Ev, symObjAddr: 0x1494, symBinAddr: 0x100002968, symSize: 0x28 }
  - { offsetInCU: 0xAB26, offset: 0xAB26, size: 0x8, addend: 0x0, symName: __ZNKSt3__16vectorIiNS_9allocatorIiEEE17__annotate_deleteB8ue170006Ev, symObjAddr: 0x14BC, symBinAddr: 0x100002990, symSize: 0xB8 }
  - { offsetInCU: 0xAB4C, offset: 0xAB4C, size: 0x8, addend: 0x0, symName: __ZNSt3__116allocator_traitsINS_9allocatorIiEEE10deallocateB8ue170006ERS2_Pim, symObjAddr: 0x1574, symBinAddr: 0x100002A48, symSize: 0x34 }
  - { offsetInCU: 0xAB8E, offset: 0xAB8E, size: 0x8, addend: 0x0, symName: __ZNSt3__16vectorIiNS_9allocatorIiEEE22__base_destruct_at_endB8ue170006EPi, symObjAddr: 0x15A8, symBinAddr: 0x100002A7C, symSize: 0x8C }
  - { offsetInCU: 0xABD3, offset: 0xABD3, size: 0x8, addend: 0x0, symName: __ZNSt3__116allocator_traitsINS_9allocatorIiEEE7destroyB8ue170006IivEEvRS2_PT_, symObjAddr: 0x1634, symBinAddr: 0x100002B08, symSize: 0x2C }
  - { offsetInCU: 0xAC10, offset: 0xAC10, size: 0x8, addend: 0x0, symName: __ZNSt3__19allocatorIiE7destroyB8ue170006EPi, symObjAddr: 0x1660, symBinAddr: 0x100002B34, symSize: 0x14 }
  - { offsetInCU: 0xAC44, offset: 0xAC44, size: 0x8, addend: 0x0, symName: __ZNSt3__19allocatorIiE10deallocateB8ue170006EPim, symObjAddr: 0x1674, symBinAddr: 0x100002B48, symSize: 0x40 }
  - { offsetInCU: 0xAC86, offset: 0xAC86, size: 0x8, addend: 0x0, symName: __ZNSt3__16vectorIiNS_9allocatorIiEEED2B8ue170006Ev, symObjAddr: 0x1730, symBinAddr: 0x100002C04, symSize: 0x40 }
  - { offsetInCU: 0xACB0, offset: 0xACB0, size: 0x8, addend: 0x0, symName: __ZNSt3__16vectorIiNS_9allocatorIiEEE11__make_iterB8ue170006EPi, symObjAddr: 0x1770, symBinAddr: 0x100002C44, symSize: 0x30 }
  - { offsetInCU: 0xACE5, offset: 0xACE5, size: 0x8, addend: 0x0, symName: __ZNSt3__111__wrap_iterIPiEC1B8ue170006ES1_, symObjAddr: 0x17A0, symBinAddr: 0x100002C74, symSize: 0x34 }
  - { offsetInCU: 0xAD1D, offset: 0xAD1D, size: 0x8, addend: 0x0, symName: __ZNSt3__111__wrap_iterIPiEC2B8ue170006ES1_, symObjAddr: 0x17D4, symBinAddr: 0x100002CA8, symSize: 0x20 }
  - { offsetInCU: 0xAD5F, offset: 0xAD5F, size: 0x8, addend: 0x0, symName: __ZNKSt3__110__equal_toclB8ue170006IiiEEbRKT_RKT0_, symObjAddr: 0x1A54, symBinAddr: 0x100002F28, symSize: 0x34 }
  - { offsetInCU: 0xADB8, offset: 0xADB8, size: 0x8, addend: 0x0, symName: __ZNSt3__18_IterOpsINS_17_ClassicAlgPolicyEE11__iter_moveB8ue170006IRNS_11__wrap_iterIPiEEEENS_9enable_ifIXsr12is_referenceIDTdeclsr3stdE7declvalIRT_EEEEE5valueEDTclsr3stdE4movedeclsr3stdE7declvalISA_EEEEE4typeEOS9_, symObjAddr: 0x1A88, symBinAddr: 0x100002F5C, symSize: 0x28 }
  - { offsetInCU: 0xAE02, offset: 0xAE02, size: 0x8, addend: 0x0, symName: __ZNSt3__14pairINS_11__wrap_iterIPiEES3_EC1B8ue170006IS3_S3_LPv0EEEOT_OT0_, symObjAddr: 0x1AB0, symBinAddr: 0x100002F84, symSize: 0x3C }
  - { offsetInCU: 0xAE60, offset: 0xAE60, size: 0x8, addend: 0x0, symName: __ZNSt3__14pairINS_11__wrap_iterIPiEES3_EC1B8ue170006IRS3_S6_LPv0EEEOT_OT0_, symObjAddr: 0x1AEC, symBinAddr: 0x100002FC0, symSize: 0x3C }
  - { offsetInCU: 0xAEBE, offset: 0xAEBE, size: 0x8, addend: 0x0, symName: __ZNSt3__18_IterOpsINS_17_ClassicAlgPolicyEE25__validate_iter_referenceB8ue170006IRNS_11__wrap_iterIPiEEEEvv, symObjAddr: 0x1B28, symBinAddr: 0x100002FFC, symSize: 0x4 }
  - { offsetInCU: 0xAEDC, offset: 0xAEDC, size: 0x8, addend: 0x0, symName: __ZNSt3__14pairINS_11__wrap_iterIPiEES3_EC2B8ue170006IS3_S3_LPv0EEEOT_OT0_, symObjAddr: 0x1B2C, symBinAddr: 0x100003000, symSize: 0x34 }
  - { offsetInCU: 0xAF3A, offset: 0xAF3A, size: 0x8, addend: 0x0, symName: __ZNSt3__14pairINS_11__wrap_iterIPiEES3_EC2B8ue170006IRS3_S6_LPv0EEEOT_OT0_, symObjAddr: 0x1B60, symBinAddr: 0x100003034, symSize: 0x34 }
  - { offsetInCU: 0xAF98, offset: 0xAF98, size: 0x8, addend: 0x0, symName: __ZNSt3__16vectorIiNS_9allocatorIiEEE17__destruct_at_endB8ue170006EPi, symObjAddr: 0x1C10, symBinAddr: 0x1000030E4, symSize: 0x4C }
  - { offsetInCU: 0xAFDD, offset: 0xAFDD, size: 0x8, addend: 0x0, symName: __ZNKSt3__111__wrap_iterIPKiE4baseB8ue170006Ev, symObjAddr: 0x1CE4, symBinAddr: 0x1000031B8, symSize: 0x18 }
  - { offsetInCU: 0xB003, offset: 0xB003, size: 0x8, addend: 0x0, symName: __ZNKSt3__16vectorIiNS_9allocatorIiEEE17__annotate_shrinkB8ue170006Em, symObjAddr: 0x1D44, symBinAddr: 0x100003218, symSize: 0xB4 }
  - { offsetInCU: 0xB05B, offset: 0xB05B, size: 0x8, addend: 0x0, symName: __ZNKSt3__114__move_trivialclB8ue170006IiiLi0EEENS_4pairIPT_PT0_EES4_S4_S6_, symObjAddr: 0x1F94, symBinAddr: 0x100003468, symSize: 0x48 }
  - { offsetInCU: 0xB0C8, offset: 0xB0C8, size: 0x8, addend: 0x0, symName: __ZNSt3__14pairIPiS1_EC1B8ue170006IRS1_S1_LPv0EEEOT_OT0_, symObjAddr: 0x21BC, symBinAddr: 0x100003690, symSize: 0x3C }
  - { offsetInCU: 0xB126, offset: 0xB126, size: 0x8, addend: 0x0, symName: __ZNSt3__14pairIPiS1_EC2B8ue170006IRS1_S1_LPv0EEEOT_OT0_, symObjAddr: 0x21F8, symBinAddr: 0x1000036CC, symSize: 0x34 }
  - { offsetInCU: 0xB184, offset: 0xB184, size: 0x8, addend: 0x0, symName: __ZNSt3__118__unwrap_iter_implIPiLb1EE8__unwrapB8ue170006ES1_, symObjAddr: 0x222C, symBinAddr: 0x100003700, symSize: 0x24 }
  - { offsetInCU: 0xB1A7, offset: 0xB1A7, size: 0x8, addend: 0x0, symName: __ZNSt3__14pairIPiS1_EC1B8ue170006IS1_S1_LPv0EEEOT_OT0_, symObjAddr: 0x2250, symBinAddr: 0x100003724, symSize: 0x3C }
  - { offsetInCU: 0xB205, offset: 0xB205, size: 0x8, addend: 0x0, symName: __ZNSt3__14pairIPiS1_EC2B8ue170006IS1_S1_LPv0EEEOT_OT0_, symObjAddr: 0x228C, symBinAddr: 0x100003760, symSize: 0x34 }
  - { offsetInCU: 0xB263, offset: 0xB263, size: 0x8, addend: 0x0, symName: __ZNSt3__118__unwrap_iter_implIPiLb1EE8__rewrapB8ue170006ES1_S1_, symObjAddr: 0x22C0, symBinAddr: 0x100003794, symSize: 0x50 }
  - { offsetInCU: 0xB294, offset: 0xB294, size: 0x8, addend: 0x0, symName: __ZNKSt3__19basic_iosIcNS_11char_traitsIcEEE5widenB8ue170006Ec, symObjAddr: 0x2310, symBinAddr: 0x1000037E4, symSize: 0x84 }
  - { offsetInCU: 0xB2FD, offset: 0xB2FD, size: 0x8, addend: 0x0, symName: __ZNKSt3__15ctypeIcE5widenB8ue170006Ec, symObjAddr: 0x23C0, symBinAddr: 0x100003894, symSize: 0x38 }
  - { offsetInCU: 0xB332, offset: 0xB332, size: 0x8, addend: 0x0, symName: __ZNSt3__112basic_stringIcNS_11char_traitsIcEENS_9allocatorIcEEEC2B8ue170006Ev, symObjAddr: 0x23F8, symBinAddr: 0x1000038CC, symSize: 0x48 }
  - { offsetInCU: 0xB35C, offset: 0xB35C, size: 0x8, addend: 0x0, symName: __ZNSt3__117__compressed_pairINS_12basic_stringIcNS_11char_traitsIcEENS_9allocatorIcEEE5__repES5_EC1B8ue170006INS_18__default_init_tagESA_EEOT_OT0_, symObjAddr: 0x2440, symBinAddr: 0x100003914, symSize: 0x3C }
  - { offsetInCU: 0xB3B4, offset: 0xB3B4, size: 0x8, addend: 0x0, symName: __ZNSt3__112basic_stringIcNS_11char_traitsIcEENS_9allocatorIcEEE14__default_initB8ue170006Ev, symObjAddr: 0x247C, symBinAddr: 0x100003950, symSize: 0x40 }
  - { offsetInCU: 0xB3DA, offset: 0xB3DA, size: 0x8, addend: 0x0, symName: __ZNSt3__117__compressed_pairINS_12basic_stringIcNS_11char_traitsIcEENS_9allocatorIcEEE5__repES5_EC2B8ue170006INS_18__default_init_tagESA_EEOT_OT0_, symObjAddr: 0x24BC, symBinAddr: 0x100003990, symSize: 0x3C }
  - { offsetInCU: 0xB432, offset: 0xB432, size: 0x8, addend: 0x0, symName: __ZNSt3__122__compressed_pair_elemINS_12basic_stringIcNS_11char_traitsIcEENS_9allocatorIcEEE5__repELi0ELb0EEC2B8ue170006ENS_18__default_init_tagE, symObjAddr: 0x24F8, symBinAddr: 0x1000039CC, symSize: 0x14 }
  - { offsetInCU: 0xB467, offset: 0xB467, size: 0x8, addend: 0x0, symName: __ZNSt3__122__compressed_pair_elemINS_9allocatorIcEELi1ELb1EEC2B8ue170006ENS_18__default_init_tagE, symObjAddr: 0x250C, symBinAddr: 0x1000039E0, symSize: 0x2C }
  - { offsetInCU: 0xB49C, offset: 0xB49C, size: 0x8, addend: 0x0, symName: __ZNSt3__19allocatorIcEC2B8ue170006Ev, symObjAddr: 0x2538, symBinAddr: 0x100003A0C, symSize: 0x2C }
  - { offsetInCU: 0xB4C6, offset: 0xB4C6, size: 0x8, addend: 0x0, symName: __ZNSt3__116__non_trivial_ifILb1ENS_9allocatorIcEEEC2B8ue170006Ev, symObjAddr: 0x2564, symBinAddr: 0x100003A38, symSize: 0x14 }
  - { offsetInCU: 0xB4F0, offset: 0xB4F0, size: 0x8, addend: 0x0, symName: __ZNSt3__117__compressed_pairINS_12basic_stringIcNS_11char_traitsIcEENS_9allocatorIcEEE5__repES5_E5firstB8ue170006Ev, symObjAddr: 0x2578, symBinAddr: 0x100003A4C, symSize: 0x24 }
  - { offsetInCU: 0xB516, offset: 0xB516, size: 0x8, addend: 0x0, symName: __ZNSt3__122__compressed_pair_elemINS_12basic_stringIcNS_11char_traitsIcEENS_9allocatorIcEEE5__repELi0ELb0EE5__getB8ue170006Ev, symObjAddr: 0x259C, symBinAddr: 0x100003A70, symSize: 0x14 }
  - { offsetInCU: 0xB53C, offset: 0xB53C, size: 0x8, addend: 0x0, symName: __ZNKSt3__112basic_stringIcNS_11char_traitsIcEENS_9allocatorIcEEE4sizeB8ue170006Ev, symObjAddr: 0x25B0, symBinAddr: 0x100003A84, symSize: 0x54 }
  - { offsetInCU: 0xB562, offset: 0xB562, size: 0x8, addend: 0x0, symName: __ZNKSt3__112basic_stringIcNS_11char_traitsIcEENS_9allocatorIcEEE9__is_longB8ue170006Ev, symObjAddr: 0x2604, symBinAddr: 0x100003AD8, symSize: 0x38 }
  - { offsetInCU: 0xB588, offset: 0xB588, size: 0x8, addend: 0x0, symName: __ZNKSt3__112basic_stringIcNS_11char_traitsIcEENS_9allocatorIcEEE15__get_long_sizeB8ue170006Ev, symObjAddr: 0x263C, symBinAddr: 0x100003B10, symSize: 0x28 }
  - { offsetInCU: 0xB5AE, offset: 0xB5AE, size: 0x8, addend: 0x0, symName: __ZNKSt3__112basic_stringIcNS_11char_traitsIcEENS_9allocatorIcEEE16__get_short_sizeB8ue170006Ev, symObjAddr: 0x2664, symBinAddr: 0x100003B38, symSize: 0x34 }
  - { offsetInCU: 0xB5D4, offset: 0xB5D4, size: 0x8, addend: 0x0, symName: __ZNKSt3__117__compressed_pairINS_12basic_stringIcNS_11char_traitsIcEENS_9allocatorIcEEE5__repES5_E5firstB8ue170006Ev, symObjAddr: 0x2698, symBinAddr: 0x100003B6C, symSize: 0x24 }
  - { offsetInCU: 0xB5FA, offset: 0xB5FA, size: 0x8, addend: 0x0, symName: __ZNKSt3__122__compressed_pair_elemINS_12basic_stringIcNS_11char_traitsIcEENS_9allocatorIcEEE5__repELi0ELb0EE5__getB8ue170006Ev, symObjAddr: 0x26BC, symBinAddr: 0x100003B90, symSize: 0x14 }
...
