---
triple:          'arm64-apple-darwin'
binary-path:     '/Users/sajidhasan/VSCODE/cfp5'
relocations:
  - { offsetInCU: 0x4EEA, offset: 0x4EEA, size: 0x8, addend: 0x0, symName: __ZNSt3__1neB8ue170006IPiEEbRKNS_11__wrap_iterIT_EES6_, symObjAddr: 0x428, symBinAddr: 0x100002740, symSize: 0x34 }
  - { offsetInCU: 0x5B68, offset: 0x5B68, size: 0x8, addend: 0x0, symName: __ZNSt3__14endlB8ue170006IcNS_11char_traitsIcEEEERNS_13basic_ostreamIT_T0_EES7_, symObjAddr: 0x4C0, symBinAddr: 0x1000027D8, symSize: 0x58 }
  - { offsetInCU: 0x5BA8, offset: 0x5BA8, size: 0x8, addend: 0x0, symName: __ZNSt3__14sortB8ue170006INS_11__wrap_iterIPiEEEEvT_S4_, symObjAddr: 0x518, symBinAddr: 0x100002830, symSize: 0x3C }
  - { offsetInCU: 0x5BEA, offset: 0x5BEA, size: 0x8, addend: 0x0, symName: __ZNSt3__1eqB8ue170006IPiEEbRKNS_11__wrap_iterIT_EES6_, symObjAddr: 0x5A4, symBinAddr: 0x1000028BC, symSize: 0x48 }
  - { offsetInCU: 0x5C2D, offset: 0x5C2D, size: 0x8, addend: 0x0, symName: __ZNSt3__122__make_exception_guardB8ue170006INS_6vectorIiNS_9allocatorIiEEE16__destroy_vectorEEENS_28__exception_guard_exceptionsIT_EES7_, symObjAddr: 0x714, symBinAddr: 0x100002A2C, symSize: 0x40 }
  - { offsetInCU: 0x5C62, offset: 0x5C62, size: 0x8, addend: 0x0, symName: __ZNSt3__119__allocate_at_leastB8ue170006INS_9allocatorIiEEEENS_19__allocation_resultINS_16allocator_traitsIT_E7pointerEEERS5_m, symObjAddr: 0xB00, symBinAddr: 0x100002E18, symSize: 0x40 }
  - { offsetInCU: 0x5CA5, offset: 0x5CA5, size: 0x8, addend: 0x0, symName: __ZNSt3__13minB8ue170006ImEERKT_S3_S3_, symObjAddr: 0xC3C, symBinAddr: 0x100002F54, symSize: 0x2C }
  - { offsetInCU: 0x5EE9, offset: 0x5EE9, size: 0x8, addend: 0x0, symName: __ZNSt3__13minB8ue170006ImNS_6__lessIvvEEEERKT_S5_S5_T0_, symObjAddr: 0xCD4, symBinAddr: 0x100002FEC, symSize: 0x54 }
  - { offsetInCU: 0x5F88, offset: 0x5F88, size: 0x8, addend: 0x0, symName: __ZNSt3__120__throw_length_errorB8ue170006EPKc, symObjAddr: 0xDB0, symBinAddr: 0x1000030C8, symSize: 0x64 }
  - { offsetInCU: 0x5FB2, offset: 0x5FB2, size: 0x8, addend: 0x0, symName: __ZNSt3__117__libcpp_allocateB8ue170006Emm, symObjAddr: 0xF20, symBinAddr: 0x100003238, symSize: 0x28 }
  - { offsetInCU: 0x5FEF, offset: 0x5FEF, size: 0x8, addend: 0x0, symName: __ZNSt3__121__libcpp_operator_newB8ue170006IJmEEEPvDpT_, symObjAddr: 0xF48, symBinAddr: 0x100003260, symSize: 0x24 }
  - { offsetInCU: 0x6028, offset: 0x6028, size: 0x8, addend: 0x0, symName: __ZNSt3__112__to_addressB8ue170006IiEEPT_S2_, symObjAddr: 0x1064, symBinAddr: 0x10000337C, symSize: 0x14 }
  - { offsetInCU: 0x605D, offset: 0x605D, size: 0x8, addend: 0x0, symName: __ZNSt3__119__libcpp_deallocateB8ue170006EPvmm, symObjAddr: 0x1514, symBinAddr: 0x10000382C, symSize: 0x30 }
  - { offsetInCU: 0x60A5, offset: 0x60A5, size: 0x8, addend: 0x0, symName: __ZNSt3__127__do_deallocate_handle_sizeB8ue170006IJEEEvPvmDpT_, symObjAddr: 0x1544, symBinAddr: 0x10000385C, symSize: 0x28 }
  - { offsetInCU: 0x60E3, offset: 0x60E3, size: 0x8, addend: 0x0, symName: __ZNSt3__124__libcpp_operator_deleteB8ue170006IJPvEEEvDpT_, symObjAddr: 0x156C, symBinAddr: 0x100003884, symSize: 0x24 }
  - { offsetInCU: 0x6118, offset: 0x6118, size: 0x8, addend: 0x0, symName: __ZNSt3__19use_facetB8ue170006INS_5ctypeIcEEEERKT_RKNS_6localeE, symObjAddr: 0x16D8, symBinAddr: 0x1000039F0, symSize: 0x2C }
  - { offsetInCU: 0x65E5, offset: 0x65E5, size: 0x8, addend: 0x0, symName: __ZNSt3__14sortB8ue170006INS_11__wrap_iterIPiEENS_6__lessIvvEEEEvT_S6_T0_, symObjAddr: 0x173C, symBinAddr: 0x100003A54, symSize: 0x40 }
  - { offsetInCU: 0x663F, offset: 0x663F, size: 0x8, addend: 0x0, symName: __ZNSt3__111__sort_implB8ue170006INS_17_ClassicAlgPolicyENS_11__wrap_iterIPiEENS_6__lessIvvEEEEvT0_S7_RT1_, symObjAddr: 0x177C, symBinAddr: 0x100003A94, symSize: 0xA8 }
  - { offsetInCU: 0x66A2, offset: 0x66A2, size: 0x8, addend: 0x0, symName: __ZNSt3__123__debug_randomize_rangeB8ue170006INS_17_ClassicAlgPolicyENS_11__wrap_iterIPiEES4_EEvT0_T1_, symObjAddr: 0x1824, symBinAddr: 0x100003B3C, symSize: 0x14 }
  - { offsetInCU: 0x66F3, offset: 0x66F3, size: 0x8, addend: 0x0, symName: __ZNSt3__115__sort_dispatchB8ue170006INS_17_ClassicAlgPolicyEiLi0EEEvPT0_S3_RNS_6__lessIvvEE, symObjAddr: 0x1838, symBinAddr: 0x100003B50, symSize: 0x34 }
  - { offsetInCU: 0x675E, offset: 0x675E, size: 0x8, addend: 0x0, symName: __ZNSt3__113__unwrap_iterB8ue170006INS_11__wrap_iterIPiEENS_18__unwrap_iter_implIS3_Lb1EEELi0EEEDTclsrT0_8__unwrapclsr3stdE7declvalIT_EEEES7_, symObjAddr: 0x186C, symBinAddr: 0x100003B84, symSize: 0x2C }
  - { offsetInCU: 0x67A2, offset: 0x67A2, size: 0x8, addend: 0x0, symName: __ZNSt3__135__check_strict_weak_ordering_sortedB8ue170006IPiNS_6__lessIvvEEEEvT_S4_RT0_, symObjAddr: 0x1898, symBinAddr: 0x100003BB0, symSize: 0x18 }
  - { offsetInCU: 0x684B, offset: 0x684B, size: 0x8, addend: 0x0, symName: __ZNSt3__112__to_addressB8ue170006INS_11__wrap_iterIPiEEvEEu7__decayIDTclsr19__to_address_helperIT_EE6__callclsr3stdE7declvalIRKS4_EEEEES6_, symObjAddr: 0x18D8, symBinAddr: 0x100003BF0, symSize: 0x24 }
  - { offsetInCU: 0x6C20, offset: 0x6C20, size: 0x8, addend: 0x0, symName: __ZSt28__throw_bad_array_new_lengthB8ue170006v, symObjAddr: 0xEEC, symBinAddr: 0x100003204, symSize: 0x34 }
  - { offsetInCU: 0x92B9, offset: 0x92B9, size: 0x8, addend: 0x0, symName: _main, symObjAddr: 0x0, symBinAddr: 0x100002318, symSize: 0x394 }
  - { offsetInCU: 0x93C7, offset: 0x93C7, size: 0x8, addend: 0x0, symName: __ZNSt3__16vectorIiNS_9allocatorIiEEEC1Em, symObjAddr: 0x394, symBinAddr: 0x1000026AC, symSize: 0x34 }
  - { offsetInCU: 0x9402, offset: 0x9402, size: 0x8, addend: 0x0, symName: __ZNSt3__16vectorIiNS_9allocatorIiEEE5beginB8ue170006Ev, symObjAddr: 0x3C8, symBinAddr: 0x1000026E0, symSize: 0x30 }
  - { offsetInCU: 0x942A, offset: 0x942A, size: 0x8, addend: 0x0, symName: __ZNSt3__16vectorIiNS_9allocatorIiEEE3endB8ue170006Ev, symObjAddr: 0x3F8, symBinAddr: 0x100002710, symSize: 0x30 }
  - { offsetInCU: 0x9452, offset: 0x9452, size: 0x8, addend: 0x0, symName: __ZNKSt3__111__wrap_iterIPiEdeB8ue170006Ev, symObjAddr: 0x45C, symBinAddr: 0x100002774, symSize: 0x18 }
  - { offsetInCU: 0x9478, offset: 0x9478, size: 0x8, addend: 0x0, symName: __ZNSt3__111__wrap_iterIPiEppB8ue170006Ev, symObjAddr: 0x474, symBinAddr: 0x10000278C, symSize: 0x20 }
  - { offsetInCU: 0x954B, offset: 0x954B, size: 0x8, addend: 0x0, symName: __ZNSt3__113basic_ostreamIcNS_11char_traitsIcEEElsB8ue170006EPFRS3_S4_E, symObjAddr: 0x494, symBinAddr: 0x1000027AC, symSize: 0x2C }
  - { offsetInCU: 0x957F, offset: 0x957F, size: 0x8, addend: 0x0, symName: __ZNSt3__16vectorIiNS_9allocatorIiEEEixB8ue170006Em, symObjAddr: 0x554, symBinAddr: 0x10000286C, symSize: 0x24 }
  - { offsetInCU: 0x95B6, offset: 0x95B6, size: 0x8, addend: 0x0, symName: __ZNSt3__16vectorIiNS_9allocatorIiEEED1B8ue170006Ev, symObjAddr: 0x578, symBinAddr: 0x100002890, symSize: 0x2C }
  - { offsetInCU: 0x95E0, offset: 0x95E0, size: 0x8, addend: 0x0, symName: __ZNKSt3__111__wrap_iterIPiE4baseB8ue170006Ev, symObjAddr: 0x5EC, symBinAddr: 0x100002904, symSize: 0x18 }
  - { offsetInCU: 0x9606, offset: 0x9606, size: 0x8, addend: 0x0, symName: __ZNSt3__16vectorIiNS_9allocatorIiEEEC2Em, symObjAddr: 0x604, symBinAddr: 0x10000291C, symSize: 0xD4 }
  - { offsetInCU: 0x9661, offset: 0x9661, size: 0x8, addend: 0x0, symName: __ZNSt3__117__compressed_pairIPiNS_9allocatorIiEEEC1B8ue170006IDnNS_18__default_init_tagEEEOT_OT0_, symObjAddr: 0x6D8, symBinAddr: 0x1000029F0, symSize: 0x3C }
  - { offsetInCU: 0x96B9, offset: 0x96B9, size: 0x8, addend: 0x0, symName: __ZNSt3__16vectorIiNS_9allocatorIiEEE16__destroy_vectorC1B8ue170006ERS3_, symObjAddr: 0x754, symBinAddr: 0x100002A6C, symSize: 0x34 }
  - { offsetInCU: 0x96F2, offset: 0x96F2, size: 0x8, addend: 0x0, symName: __ZNSt3__16vectorIiNS_9allocatorIiEEE11__vallocateB8ue170006Em, symObjAddr: 0x788, symBinAddr: 0x100002AA0, symSize: 0xAC }
  - { offsetInCU: 0x9736, offset: 0x9736, size: 0x8, addend: 0x0, symName: __ZNSt3__16vectorIiNS_9allocatorIiEEE18__construct_at_endEm, symObjAddr: 0x834, symBinAddr: 0x100002B4C, symSize: 0xC8 }
  - { offsetInCU: 0x97A9, offset: 0x97A9, size: 0x8, addend: 0x0, symName: __ZNSt3__128__exception_guard_exceptionsINS_6vectorIiNS_9allocatorIiEEE16__destroy_vectorEE10__completeB8ue170006Ev, symObjAddr: 0x8FC, symBinAddr: 0x100002C14, symSize: 0x1C }
  - { offsetInCU: 0x97CF, offset: 0x97CF, size: 0x8, addend: 0x0, symName: __ZNSt3__128__exception_guard_exceptionsINS_6vectorIiNS_9allocatorIiEEE16__destroy_vectorEED1B8ue170006Ev, symObjAddr: 0x918, symBinAddr: 0x100002C30, symSize: 0x2C }
  - { offsetInCU: 0x97F9, offset: 0x97F9, size: 0x8, addend: 0x0, symName: __ZNSt3__117__compressed_pairIPiNS_9allocatorIiEEEC2B8ue170006IDnNS_18__default_init_tagEEEOT_OT0_, symObjAddr: 0x944, symBinAddr: 0x100002C5C, symSize: 0x40 }
  - { offsetInCU: 0x9851, offset: 0x9851, size: 0x8, addend: 0x0, symName: __ZNSt3__122__compressed_pair_elemIPiLi0ELb0EEC2B8ue170006IDnvEEOT_, symObjAddr: 0x984, symBinAddr: 0x100002C9C, symSize: 0x1C }
  - { offsetInCU: 0x9893, offset: 0x9893, size: 0x8, addend: 0x0, symName: __ZNSt3__122__compressed_pair_elemINS_9allocatorIiEELi1ELb1EEC2B8ue170006ENS_18__default_init_tagE, symObjAddr: 0x9A0, symBinAddr: 0x100002CB8, symSize: 0x2C }
  - { offsetInCU: 0x98C8, offset: 0x98C8, size: 0x8, addend: 0x0, symName: __ZNSt3__19allocatorIiEC2B8ue170006Ev, symObjAddr: 0x9CC, symBinAddr: 0x100002CE4, symSize: 0x2C }
  - { offsetInCU: 0x98F2, offset: 0x98F2, size: 0x8, addend: 0x0, symName: __ZNSt3__116__non_trivial_ifILb1ENS_9allocatorIiEEEC2B8ue170006Ev, symObjAddr: 0x9F8, symBinAddr: 0x100002D10, symSize: 0x14 }
  - { offsetInCU: 0x991C, offset: 0x991C, size: 0x8, addend: 0x0, symName: __ZNSt3__128__exception_guard_exceptionsINS_6vectorIiNS_9allocatorIiEEE16__destroy_vectorEEC1B8ue170006ES5_, symObjAddr: 0xA0C, symBinAddr: 0x100002D24, symSize: 0x34 }
  - { offsetInCU: 0x9954, offset: 0x9954, size: 0x8, addend: 0x0, symName: __ZNSt3__128__exception_guard_exceptionsINS_6vectorIiNS_9allocatorIiEEE16__destroy_vectorEEC2B8ue170006ES5_, symObjAddr: 0xA40, symBinAddr: 0x100002D58, symSize: 0x24 }
  - { offsetInCU: 0x998C, offset: 0x998C, size: 0x8, addend: 0x0, symName: __ZNSt3__16vectorIiNS_9allocatorIiEEE16__destroy_vectorC2B8ue170006ERS3_, symObjAddr: 0xA64, symBinAddr: 0x100002D7C, symSize: 0x20 }
  - { offsetInCU: 0x99C5, offset: 0x99C5, size: 0x8, addend: 0x0, symName: __ZNKSt3__16vectorIiNS_9allocatorIiEEE8max_sizeEv, symObjAddr: 0xA84, symBinAddr: 0x100002D9C, symSize: 0x60 }
  - { offsetInCU: 0x99ED, offset: 0x99ED, size: 0x8, addend: 0x0, symName: __ZNKSt3__16vectorIiNS_9allocatorIiEEE20__throw_length_errorB8ue170006Ev, symObjAddr: 0xAE4, symBinAddr: 0x100002DFC, symSize: 0x1C }
  - { offsetInCU: 0x9A13, offset: 0x9A13, size: 0x8, addend: 0x0, symName: __ZNSt3__16vectorIiNS_9allocatorIiEEE7__allocB8ue170006Ev, symObjAddr: 0xB40, symBinAddr: 0x100002E58, symSize: 0x28 }
  - { offsetInCU: 0x9A39, offset: 0x9A39, size: 0x8, addend: 0x0, symName: __ZNSt3__16vectorIiNS_9allocatorIiEEE9__end_capB8ue170006Ev, symObjAddr: 0xB68, symBinAddr: 0x100002E80, symSize: 0x28 }
  - { offsetInCU: 0x9A5F, offset: 0x9A5F, size: 0x8, addend: 0x0, symName: __ZNKSt3__16vectorIiNS_9allocatorIiEEE14__annotate_newB8ue170006Em, symObjAddr: 0xB90, symBinAddr: 0x100002EA8, symSize: 0xAC }
  - { offsetInCU: 0x9A9E, offset: 0x9A9E, size: 0x8, addend: 0x0, symName: __ZNSt3__116allocator_traitsINS_9allocatorIiEEE8max_sizeB8ue170006IS2_vEEmRKS2_, symObjAddr: 0xC68, symBinAddr: 0x100002F80, symSize: 0x24 }
  - { offsetInCU: 0x9ACC, offset: 0x9ACC, size: 0x8, addend: 0x0, symName: __ZNKSt3__16vectorIiNS_9allocatorIiEEE7__allocB8ue170006Ev, symObjAddr: 0xC8C, symBinAddr: 0x100002FA4, symSize: 0x28 }
  - { offsetInCU: 0x9AF2, offset: 0x9AF2, size: 0x8, addend: 0x0, symName: __ZNSt3__114numeric_limitsIlE3maxB8ue170006Ev, symObjAddr: 0xCB4, symBinAddr: 0x100002FCC, symSize: 0x14 }
  - { offsetInCU: 0x9B1A, offset: 0x9B1A, size: 0x8, addend: 0x0, symName: __ZNKSt3__16__lessIvvEclB8ue170006ImmEEbRKT_RKT0_, symObjAddr: 0xD28, symBinAddr: 0x100003040, symSize: 0x34 }
  - { offsetInCU: 0x9B6E, offset: 0x9B6E, size: 0x8, addend: 0x0, symName: __ZNKSt3__19allocatorIiE8max_sizeB8ue170006Ev, symObjAddr: 0xD5C, symBinAddr: 0x100003074, symSize: 0x14 }
  - { offsetInCU: 0x9B94, offset: 0x9B94, size: 0x8, addend: 0x0, symName: __ZNKSt3__117__compressed_pairIPiNS_9allocatorIiEEE6secondB8ue170006Ev, symObjAddr: 0xD70, symBinAddr: 0x100003088, symSize: 0x24 }
  - { offsetInCU: 0x9BBA, offset: 0x9BBA, size: 0x8, addend: 0x0, symName: __ZNKSt3__122__compressed_pair_elemINS_9allocatorIiEELi1ELb1EE5__getB8ue170006Ev, symObjAddr: 0xD94, symBinAddr: 0x1000030AC, symSize: 0x14 }
  - { offsetInCU: 0x9BE0, offset: 0x9BE0, size: 0x8, addend: 0x0, symName: __ZNSt3__123__libcpp_numeric_limitsIlLb1EE3maxB8ue170006Ev, symObjAddr: 0xDA8, symBinAddr: 0x1000030C0, symSize: 0x8 }
  - { offsetInCU: 0x9BF4, offset: 0x9BF4, size: 0x8, addend: 0x0, symName: __ZNSt12length_errorC1B8ue170006EPKc, symObjAddr: 0xE14, symBinAddr: 0x10000312C, symSize: 0x34 }
  - { offsetInCU: 0x9C2C, offset: 0x9C2C, size: 0x8, addend: 0x0, symName: __ZNSt12length_errorC2B8ue170006EPKc, symObjAddr: 0xE48, symBinAddr: 0x100003160, symSize: 0x4C }
  - { offsetInCU: 0x9C64, offset: 0x9C64, size: 0x8, addend: 0x0, symName: __ZNSt3__19allocatorIiE8allocateB8ue170006Em, symObjAddr: 0xE94, symBinAddr: 0x1000031AC, symSize: 0x58 }
  - { offsetInCU: 0x9C98, offset: 0x9C98, size: 0x8, addend: 0x0, symName: __ZNSt3__117__compressed_pairIPiNS_9allocatorIiEEE6secondB8ue170006Ev, symObjAddr: 0xF6C, symBinAddr: 0x100003284, symSize: 0x24 }
  - { offsetInCU: 0x9CBE, offset: 0x9CBE, size: 0x8, addend: 0x0, symName: __ZNSt3__122__compressed_pair_elemINS_9allocatorIiEELi1ELb1EE5__getB8ue170006Ev, symObjAddr: 0xF90, symBinAddr: 0x1000032A8, symSize: 0x14 }
  - { offsetInCU: 0x9CE4, offset: 0x9CE4, size: 0x8, addend: 0x0, symName: __ZNSt3__117__compressed_pairIPiNS_9allocatorIiEEE5firstB8ue170006Ev, symObjAddr: 0xFA4, symBinAddr: 0x1000032BC, symSize: 0x24 }
  - { offsetInCU: 0x9D0A, offset: 0x9D0A, size: 0x8, addend: 0x0, symName: __ZNSt3__122__compressed_pair_elemIPiLi0ELb0EE5__getB8ue170006Ev, symObjAddr: 0xFC8, symBinAddr: 0x1000032E0, symSize: 0x14 }
  - { offsetInCU: 0x9D30, offset: 0x9D30, size: 0x8, addend: 0x0, symName: __ZNKSt3__16vectorIiNS_9allocatorIiEEE31__annotate_contiguous_containerB8ue170006EPKvS5_S5_S5_, symObjAddr: 0xFDC, symBinAddr: 0x1000032F4, symSize: 0x20 }
  - { offsetInCU: 0x9D82, offset: 0x9D82, size: 0x8, addend: 0x0, symName: __ZNKSt3__16vectorIiNS_9allocatorIiEEE4dataB8ue170006Ev, symObjAddr: 0xFFC, symBinAddr: 0x100003314, symSize: 0x28 }
  - { offsetInCU: 0x9DA8, offset: 0x9DA8, size: 0x8, addend: 0x0, symName: __ZNKSt3__16vectorIiNS_9allocatorIiEEE8capacityB8ue170006Ev, symObjAddr: 0x1024, symBinAddr: 0x10000333C, symSize: 0x40 }
  - { offsetInCU: 0x9DCE, offset: 0x9DCE, size: 0x8, addend: 0x0, symName: __ZNKSt3__16vectorIiNS_9allocatorIiEEE9__end_capB8ue170006Ev, symObjAddr: 0x1078, symBinAddr: 0x100003390, symSize: 0x28 }
  - { offsetInCU: 0x9DF4, offset: 0x9DF4, size: 0x8, addend: 0x0, symName: __ZNKSt3__117__compressed_pairIPiNS_9allocatorIiEEE5firstB8ue170006Ev, symObjAddr: 0x10A0, symBinAddr: 0x1000033B8, symSize: 0x24 }
  - { offsetInCU: 0x9E1A, offset: 0x9E1A, size: 0x8, addend: 0x0, symName: __ZNKSt3__122__compressed_pair_elemIPiLi0ELb0EE5__getB8ue170006Ev, symObjAddr: 0x10C4, symBinAddr: 0x1000033DC, symSize: 0x14 }
  - { offsetInCU: 0x9E59, offset: 0x9E59, size: 0x8, addend: 0x0, symName: __ZNSt3__16vectorIiNS_9allocatorIiEEE21_ConstructTransactionC1B8ue170006ERS3_m, symObjAddr: 0x10D8, symBinAddr: 0x1000033F0, symSize: 0x3C }
  - { offsetInCU: 0x9EA1, offset: 0x9EA1, size: 0x8, addend: 0x0, symName: __ZNSt3__116allocator_traitsINS_9allocatorIiEEE9constructB8ue170006IiJEvEEvRS2_PT_DpOT0_, symObjAddr: 0x1114, symBinAddr: 0x10000342C, symSize: 0x2C }
  - { offsetInCU: 0x9EE3, offset: 0x9EE3, size: 0x8, addend: 0x0, symName: __ZNSt3__16vectorIiNS_9allocatorIiEEE21_ConstructTransactionD1B8ue170006Ev, symObjAddr: 0x1140, symBinAddr: 0x100003458, symSize: 0x2C }
  - { offsetInCU: 0x9F0D, offset: 0x9F0D, size: 0x8, addend: 0x0, symName: __ZNSt3__16vectorIiNS_9allocatorIiEEE21_ConstructTransactionC2B8ue170006ERS3_m, symObjAddr: 0x116C, symBinAddr: 0x100003484, symSize: 0x44 }
  - { offsetInCU: 0x9F55, offset: 0x9F55, size: 0x8, addend: 0x0, symName: __ZNSt3__19allocatorIiE9constructB8ue170006IiJEEEvPT_DpOT0_, symObjAddr: 0x11B0, symBinAddr: 0x1000034C8, symSize: 0x1C }
  - { offsetInCU: 0x9F97, offset: 0x9F97, size: 0x8, addend: 0x0, symName: __ZNSt3__16vectorIiNS_9allocatorIiEEE21_ConstructTransactionD2B8ue170006Ev, symObjAddr: 0x11CC, symBinAddr: 0x1000034E4, symSize: 0x20 }
  - { offsetInCU: 0x9FC1, offset: 0x9FC1, size: 0x8, addend: 0x0, symName: __ZNSt3__128__exception_guard_exceptionsINS_6vectorIiNS_9allocatorIiEEE16__destroy_vectorEED2B8ue170006Ev, symObjAddr: 0x11EC, symBinAddr: 0x100003504, symSize: 0x50 }
  - { offsetInCU: 0x9FEB, offset: 0x9FEB, size: 0x8, addend: 0x0, symName: __ZNSt3__16vectorIiNS_9allocatorIiEEE16__destroy_vectorclB8ue170006Ev, symObjAddr: 0x123C, symBinAddr: 0x100003554, symSize: 0x90 }
  - { offsetInCU: 0xA011, offset: 0xA011, size: 0x8, addend: 0x0, symName: __ZNSt3__16vectorIiNS_9allocatorIiEEE7__clearB8ue170006Ev, symObjAddr: 0x12CC, symBinAddr: 0x1000035E4, symSize: 0x28 }
  - { offsetInCU: 0xA037, offset: 0xA037, size: 0x8, addend: 0x0, symName: __ZNKSt3__16vectorIiNS_9allocatorIiEEE17__annotate_deleteB8ue170006Ev, symObjAddr: 0x12F4, symBinAddr: 0x10000360C, symSize: 0xB8 }
  - { offsetInCU: 0xA05D, offset: 0xA05D, size: 0x8, addend: 0x0, symName: __ZNSt3__116allocator_traitsINS_9allocatorIiEEE10deallocateB8ue170006ERS2_Pim, symObjAddr: 0x13AC, symBinAddr: 0x1000036C4, symSize: 0x34 }
  - { offsetInCU: 0xA09F, offset: 0xA09F, size: 0x8, addend: 0x0, symName: __ZNSt3__16vectorIiNS_9allocatorIiEEE22__base_destruct_at_endB8ue170006EPi, symObjAddr: 0x13E0, symBinAddr: 0x1000036F8, symSize: 0x8C }
  - { offsetInCU: 0xA0E3, offset: 0xA0E3, size: 0x8, addend: 0x0, symName: __ZNSt3__116allocator_traitsINS_9allocatorIiEEE7destroyB8ue170006IivEEvRS2_PT_, symObjAddr: 0x146C, symBinAddr: 0x100003784, symSize: 0x2C }
  - { offsetInCU: 0xA120, offset: 0xA120, size: 0x8, addend: 0x0, symName: __ZNSt3__19allocatorIiE7destroyB8ue170006EPi, symObjAddr: 0x1498, symBinAddr: 0x1000037B0, symSize: 0x14 }
  - { offsetInCU: 0xA154, offset: 0xA154, size: 0x8, addend: 0x0, symName: __ZNKSt3__16vectorIiNS_9allocatorIiEEE4sizeB8ue170006Ev, symObjAddr: 0x14AC, symBinAddr: 0x1000037C4, symSize: 0x28 }
  - { offsetInCU: 0xA17A, offset: 0xA17A, size: 0x8, addend: 0x0, symName: __ZNSt3__19allocatorIiE10deallocateB8ue170006EPim, symObjAddr: 0x14D4, symBinAddr: 0x1000037EC, symSize: 0x40 }
  - { offsetInCU: 0xA1BC, offset: 0xA1BC, size: 0x8, addend: 0x0, symName: __ZNSt3__16vectorIiNS_9allocatorIiEEED2B8ue170006Ev, symObjAddr: 0x1590, symBinAddr: 0x1000038A8, symSize: 0x40 }
  - { offsetInCU: 0xA1E6, offset: 0xA1E6, size: 0x8, addend: 0x0, symName: __ZNSt3__16vectorIiNS_9allocatorIiEEE11__make_iterB8ue170006EPi, symObjAddr: 0x15D0, symBinAddr: 0x1000038E8, symSize: 0x30 }
  - { offsetInCU: 0xA21B, offset: 0xA21B, size: 0x8, addend: 0x0, symName: __ZNSt3__111__wrap_iterIPiEC1B8ue170006ES1_, symObjAddr: 0x1600, symBinAddr: 0x100003918, symSize: 0x34 }
  - { offsetInCU: 0xA253, offset: 0xA253, size: 0x8, addend: 0x0, symName: __ZNSt3__111__wrap_iterIPiEC2B8ue170006ES1_, symObjAddr: 0x1634, symBinAddr: 0x10000394C, symSize: 0x20 }
  - { offsetInCU: 0xA28B, offset: 0xA28B, size: 0x8, addend: 0x0, symName: __ZNKSt3__19basic_iosIcNS_11char_traitsIcEEE5widenB8ue170006Ec, symObjAddr: 0x1654, symBinAddr: 0x10000396C, symSize: 0x84 }
  - { offsetInCU: 0xA2F9, offset: 0xA2F9, size: 0x8, addend: 0x0, symName: __ZNKSt3__15ctypeIcE5widenB8ue170006Ec, symObjAddr: 0x1704, symBinAddr: 0x100003A1C, symSize: 0x38 }
  - { offsetInCU: 0xA32E, offset: 0xA32E, size: 0x8, addend: 0x0, symName: __ZNSt3__118__unwrap_iter_implINS_11__wrap_iterIPiEELb1EE8__unwrapB8ue170006ES3_, symObjAddr: 0x18B0, symBinAddr: 0x100003BC8, symSize: 0x28 }
  - { offsetInCU: 0xA35B, offset: 0xA35B, size: 0x8, addend: 0x0, symName: __ZNSt3__119__to_address_helperINS_11__wrap_iterIPiEEvE6__callB8ue170006ERKS3_, symObjAddr: 0x18FC, symBinAddr: 0x100003C14, symSize: 0x30 }
  - { offsetInCU: 0xA37E, offset: 0xA37E, size: 0x8, addend: 0x0, symName: __ZNSt3__114pointer_traitsINS_11__wrap_iterIPiEEE10to_addressB8ue170006ES3_, symObjAddr: 0x192C, symBinAddr: 0x100003C44, symSize: 0x2C }
...
