---
triple:          'arm64-apple-darwin'
binary-path:     '/Users/sajidhasan/VSCODE/cfp1'
relocations:
  - { offsetInCU: 0x58C5, offset: 0x58C5, size: 0x8, addend: 0x0, symName: __ZNSt3__124__put_character_sequenceB8ue170006IcNS_11char_traitsIcEEEERNS_13basic_ostreamIT_T0_EES7_PKS4_m, symObjAddr: 0x3390, symBinAddr: 0x100007160, symSize: 0x1EC }
  - { offsetInCU: 0x74B4, offset: 0x74B4, size: 0x8, addend: 0x0, symName: __ZNSt3__1rsB8ue170006IcNS_11char_traitsIcEEEERNS_13basic_istreamIT_T0_EES7_RS4_, symObjAddr: 0x2FC, symBinAddr: 0x1000040CC, symSize: 0x190 }
  - { offsetInCU: 0x7536, offset: 0x7536, size: 0x8, addend: 0x0, symName: __ZNSt3__1neB8ue170006ERKNS_21__hash_const_iteratorIPNS_11__hash_nodeIcPvEEEES7_, symObjAddr: 0x48C, symBinAddr: 0x10000425C, symSize: 0x34 }
  - { offsetInCU: 0x7573, offset: 0x7573, size: 0x8, addend: 0x0, symName: __ZNSt3__1lsB8ue170006INS_11char_traitsIcEEEERNS_13basic_ostreamIcT_EES6_PKc, symObjAddr: 0x538, symBinAddr: 0x100004308, symSize: 0x48 }
  - { offsetInCU: 0x75B9, offset: 0x75B9, size: 0x8, addend: 0x0, symName: __ZNSt3__14endlB8ue170006IcNS_11char_traitsIcEEEERNS_13basic_ostreamIT_T0_EES7_, symObjAddr: 0x5AC, symBinAddr: 0x10000437C, symSize: 0x58 }
  - { offsetInCU: 0x75F9, offset: 0x75F9, size: 0x8, addend: 0x0, symName: __ZNSt3__118__constexpr_strlenB8ue170006EPKc, symObjAddr: 0x7B4, symBinAddr: 0x100004584, symSize: 0x24 }
  - { offsetInCU: 0x7658, offset: 0x7658, size: 0x8, addend: 0x0, symName: __ZNSt3__119__libcpp_deallocateB8ue170006EPvmm, symObjAddr: 0x10A8, symBinAddr: 0x100004E78, symSize: 0x30 }
  - { offsetInCU: 0x76A0, offset: 0x76A0, size: 0x8, addend: 0x0, symName: __ZNSt3__127__do_deallocate_handle_sizeB8ue170006IJEEEvPvmDpT_, symObjAddr: 0x10D8, symBinAddr: 0x100004EA8, symSize: 0x28 }
  - { offsetInCU: 0x76DE, offset: 0x76DE, size: 0x8, addend: 0x0, symName: __ZNSt3__124__libcpp_operator_deleteB8ue170006IJPvEEEvDpT_, symObjAddr: 0x1100, symBinAddr: 0x100004ED0, symSize: 0x24 }
  - { offsetInCU: 0x7746, offset: 0x7746, size: 0x8, addend: 0x0, symName: __ZNSt3__116__constrain_hashB8ue170006Emm, symObjAddr: 0x1BB8, symBinAddr: 0x100005988, symSize: 0x98 }
  - { offsetInCU: 0x7780, offset: 0x7780, size: 0x8, addend: 0x0, symName: __ZNSt3__13maxB8ue170006ImEERKT_S3_S3_, symObjAddr: 0x1EAC, symBinAddr: 0x100005C7C, symSize: 0x2C }
  - { offsetInCU: 0x77C3, offset: 0x77C3, size: 0x8, addend: 0x0, symName: __ZNSt3__116__is_hash_power2B8ue170006Em, symObjAddr: 0x1ED8, symBinAddr: 0x100005CA8, symSize: 0x50 }
  - { offsetInCU: 0x780D, offset: 0x780D, size: 0x8, addend: 0x0, symName: __ZNSt3__117__libcpp_allocateB8ue170006Emm, symObjAddr: 0x23B8, symBinAddr: 0x100006188, symSize: 0x28 }
  - { offsetInCU: 0x784A, offset: 0x784A, size: 0x8, addend: 0x0, symName: __ZNSt3__121__libcpp_operator_newB8ue170006IJmEEEPvDpT_, symObjAddr: 0x23F8, symBinAddr: 0x1000061C8, symSize: 0x24 }
  - { offsetInCU: 0x7883, offset: 0x7883, size: 0x8, addend: 0x0, symName: __ZNSt3__116__next_hash_pow2B8ue170006Em, symObjAddr: 0x2A58, symBinAddr: 0x100006828, symSize: 0x6C }
  - { offsetInCU: 0x78CB, offset: 0x78CB, size: 0x8, addend: 0x0, symName: __ZNSt3__112__libcpp_clzB8ue170006Em, symObjAddr: 0x2C1C, symBinAddr: 0x1000069EC, symSize: 0x1C }
  - { offsetInCU: 0x78F7, offset: 0x78F7, size: 0x8, addend: 0x0, symName: __ZNSt3__13maxB8ue170006ImNS_6__lessIvvEEEERKT_S5_S5_T0_, symObjAddr: 0x2C38, symBinAddr: 0x100006A08, symSize: 0x54 }
  - { offsetInCU: 0x7F2C, offset: 0x7F2C, size: 0x8, addend: 0x0, symName: __ZNSt3__1eqB8ue170006ERKNS_21__hash_const_iteratorIPNS_11__hash_nodeIcPvEEEES7_, symObjAddr: 0x3360, symBinAddr: 0x100007130, symSize: 0x30 }
  - { offsetInCU: 0x7F69, offset: 0x7F69, size: 0x8, addend: 0x0, symName: __ZNSt3__116__pad_and_outputB8ue170006IcNS_11char_traitsIcEEEENS_19ostreambuf_iteratorIT_T0_EES6_PKS4_S8_S8_RNS_8ios_baseES4_, symObjAddr: 0x3598, symBinAddr: 0x100007368, symSize: 0x240 }
  - { offsetInCU: 0x8038, offset: 0x8038, size: 0x8, addend: 0x0, symName: __ZNSt3__112__to_addressB8ue170006IKcEEPT_S3_, symObjAddr: 0x39DC, symBinAddr: 0x1000077AC, symSize: 0x14 }
  - { offsetInCU: 0x80A0, offset: 0x80A0, size: 0x8, addend: 0x0, symName: __ZNSt3__19use_facetB8ue170006INS_5ctypeIcEEEERKT_RKNS_6localeE, symObjAddr: 0x3B80, symBinAddr: 0x100007950, symSize: 0x2C }
  - { offsetInCU: 0x860B, offset: 0x860B, size: 0x8, addend: 0x0, symName: __ZSt28__throw_bad_array_new_lengthB8ue170006v, symObjAddr: 0x2384, symBinAddr: 0x100006154, symSize: 0x34 }
  - { offsetInCU: 0xAFE1, offset: 0xAFE1, size: 0x8, addend: 0x0, symName: _main, symObjAddr: 0x0, symBinAddr: 0x100003DD0, symSize: 0x1FC }
  - { offsetInCU: 0xB086, offset: 0xB086, size: 0x8, addend: 0x0, symName: __ZNSt3__112basic_stringIcNS_11char_traitsIcEENS_9allocatorIcEEEC1B8ue170006ILi0EEEPKc, symObjAddr: 0x1FC, symBinAddr: 0x100003FCC, symSize: 0x34 }
  - { offsetInCU: 0xB133, offset: 0xB133, size: 0x8, addend: 0x0, symName: __ZNSt3__113unordered_setIcNS_4hashIcEENS_8equal_toIcEENS_9allocatorIcEEEC1B8ue170006Ev, symObjAddr: 0x230, symBinAddr: 0x100004000, symSize: 0x2C }
  - { offsetInCU: 0xB15D, offset: 0xB15D, size: 0x8, addend: 0x0, symName: __ZNKSt3__112basic_stringIcNS_11char_traitsIcEENS_9allocatorIcEEE6lengthB8ue170006Ev, symObjAddr: 0x25C, symBinAddr: 0x10000402C, symSize: 0x24 }
  - { offsetInCU: 0xB183, offset: 0xB183, size: 0x8, addend: 0x0, symName: __ZNSt3__113unordered_setIcNS_4hashIcEENS_8equal_toIcEENS_9allocatorIcEEE6insertB8ue170006ERKc, symObjAddr: 0x280, symBinAddr: 0x100004050, symSize: 0x4C }
  - { offsetInCU: 0xB1B8, offset: 0xB1B8, size: 0x8, addend: 0x0, symName: __ZNSt3__112basic_stringIcNS_11char_traitsIcEENS_9allocatorIcEEEixB8ue170006Em, symObjAddr: 0x2CC, symBinAddr: 0x10000409C, symSize: 0x30 }
  - { offsetInCU: 0xB1ED, offset: 0xB1ED, size: 0x8, addend: 0x0, symName: __ZNSt3__113unordered_setIcNS_4hashIcEENS_8equal_toIcEENS_9allocatorIcEEE4findB8ue170006ERKc, symObjAddr: 0x4C0, symBinAddr: 0x100004290, symSize: 0x40 }
  - { offsetInCU: 0xB222, offset: 0xB222, size: 0x8, addend: 0x0, symName: __ZNSt3__113unordered_setIcNS_4hashIcEENS_8equal_toIcEENS_9allocatorIcEEE3endB8ue170006Ev, symObjAddr: 0x500, symBinAddr: 0x1000042D0, symSize: 0x38 }
  - { offsetInCU: 0xB248, offset: 0xB248, size: 0x8, addend: 0x0, symName: __ZNSt3__113basic_ostreamIcNS_11char_traitsIcEEElsB8ue170006EPFRS3_S4_E, symObjAddr: 0x580, symBinAddr: 0x100004350, symSize: 0x2C }
  - { offsetInCU: 0xB27C, offset: 0xB27C, size: 0x8, addend: 0x0, symName: __ZNSt3__113unordered_setIcNS_4hashIcEENS_8equal_toIcEENS_9allocatorIcEEED1B8ue170006Ev, symObjAddr: 0x604, symBinAddr: 0x1000043D4, symSize: 0x2C }
  - { offsetInCU: 0xB2A6, offset: 0xB2A6, size: 0x8, addend: 0x0, symName: __ZNSt3__112basic_stringIcNS_11char_traitsIcEENS_9allocatorIcEEEC2B8ue170006ILi0EEEPKc, symObjAddr: 0x630, symBinAddr: 0x100004400, symSize: 0x58 }
  - { offsetInCU: 0xB2EA, offset: 0xB2EA, size: 0x8, addend: 0x0, symName: __ZNSt3__117__compressed_pairINS_12basic_stringIcNS_11char_traitsIcEENS_9allocatorIcEEE5__repES5_EC1B8ue170006INS_18__default_init_tagESA_EEOT_OT0_, symObjAddr: 0x688, symBinAddr: 0x100004458, symSize: 0x3C }
  - { offsetInCU: 0xB342, offset: 0xB342, size: 0x8, addend: 0x0, symName: __ZNSt3__111char_traitsIcE6lengthB8ue170006EPKc, symObjAddr: 0x6C4, symBinAddr: 0x100004494, symSize: 0x34 }
  - { offsetInCU: 0xB365, offset: 0xB365, size: 0x8, addend: 0x0, symName: __ZNSt3__117__compressed_pairINS_12basic_stringIcNS_11char_traitsIcEENS_9allocatorIcEEE5__repES5_EC2B8ue170006INS_18__default_init_tagESA_EEOT_OT0_, symObjAddr: 0x6F8, symBinAddr: 0x1000044C8, symSize: 0x3C }
  - { offsetInCU: 0xB3BD, offset: 0xB3BD, size: 0x8, addend: 0x0, symName: __ZNSt3__122__compressed_pair_elemINS_12basic_stringIcNS_11char_traitsIcEENS_9allocatorIcEEE5__repELi0ELb0EEC2B8ue170006ENS_18__default_init_tagE, symObjAddr: 0x734, symBinAddr: 0x100004504, symSize: 0x14 }
  - { offsetInCU: 0xB3F2, offset: 0xB3F2, size: 0x8, addend: 0x0, symName: __ZNSt3__122__compressed_pair_elemINS_9allocatorIcEELi1ELb1EEC2B8ue170006ENS_18__default_init_tagE, symObjAddr: 0x748, symBinAddr: 0x100004518, symSize: 0x2C }
  - { offsetInCU: 0xB427, offset: 0xB427, size: 0x8, addend: 0x0, symName: __ZNSt3__19allocatorIcEC2B8ue170006Ev, symObjAddr: 0x774, symBinAddr: 0x100004544, symSize: 0x2C }
  - { offsetInCU: 0xB451, offset: 0xB451, size: 0x8, addend: 0x0, symName: __ZNSt3__116__non_trivial_ifILb1ENS_9allocatorIcEEEC2B8ue170006Ev, symObjAddr: 0x7A0, symBinAddr: 0x100004570, symSize: 0x14 }
  - { offsetInCU: 0xB47B, offset: 0xB47B, size: 0x8, addend: 0x0, symName: __ZNSt3__113unordered_setIcNS_4hashIcEENS_8equal_toIcEENS_9allocatorIcEEEC2B8ue170006Ev, symObjAddr: 0x7E4, symBinAddr: 0x1000045B4, symSize: 0x2C }
  - { offsetInCU: 0xB4A5, offset: 0xB4A5, size: 0x8, addend: 0x0, symName: __ZNSt3__112__hash_tableIcNS_4hashIcEENS_8equal_toIcEENS_9allocatorIcEEEC1Ev, symObjAddr: 0x810, symBinAddr: 0x1000045E0, symSize: 0x2C }
  - { offsetInCU: 0xB4D1, offset: 0xB4D1, size: 0x8, addend: 0x0, symName: __ZNSt3__112__hash_tableIcNS_4hashIcEENS_8equal_toIcEENS_9allocatorIcEEEC2Ev, symObjAddr: 0x83C, symBinAddr: 0x10000460C, symSize: 0x7C }
  - { offsetInCU: 0xB4FD, offset: 0xB4FD, size: 0x8, addend: 0x0, symName: __ZNSt3__110unique_ptrIA_PNS_16__hash_node_baseIPNS_11__hash_nodeIcPvEEEENS_25__bucket_list_deallocatorINS_9allocatorIS7_EEEEEC1B8ue170006ILb1EvEEv, symObjAddr: 0x8B8, symBinAddr: 0x100004688, symSize: 0x2C }
  - { offsetInCU: 0xB532, offset: 0xB532, size: 0x8, addend: 0x0, symName: __ZNSt3__117__compressed_pairINS_16__hash_node_baseIPNS_11__hash_nodeIcPvEEEENS_9allocatorIS4_EEEC1B8ue170006ILb1EvEEv, symObjAddr: 0x8E4, symBinAddr: 0x1000046B4, symSize: 0x2C }
  - { offsetInCU: 0xB56C, offset: 0xB56C, size: 0x8, addend: 0x0, symName: __ZNSt3__117__compressed_pairImNS_4hashIcEEEC1B8ue170006IiNS_18__default_init_tagEEEOT_OT0_, symObjAddr: 0x910, symBinAddr: 0x1000046E0, symSize: 0x3C }
  - { offsetInCU: 0xB5C9, offset: 0xB5C9, size: 0x8, addend: 0x0, symName: __ZNSt3__117__compressed_pairIfNS_8equal_toIcEEEC1B8ue170006IfNS_18__default_init_tagEEEOT_OT0_, symObjAddr: 0x94C, symBinAddr: 0x10000471C, symSize: 0x3C }
  - { offsetInCU: 0xB621, offset: 0xB621, size: 0x8, addend: 0x0, symName: __ZNSt3__110unique_ptrIA_PNS_16__hash_node_baseIPNS_11__hash_nodeIcPvEEEENS_25__bucket_list_deallocatorINS_9allocatorIS7_EEEEEC2B8ue170006ILb1EvEEv, symObjAddr: 0x988, symBinAddr: 0x100004758, symSize: 0x3C }
  - { offsetInCU: 0xB65B, offset: 0xB65B, size: 0x8, addend: 0x0, symName: __ZNSt3__117__compressed_pairIPPNS_16__hash_node_baseIPNS_11__hash_nodeIcPvEEEENS_25__bucket_list_deallocatorINS_9allocatorIS7_EEEEEC1B8ue170006INS_16__value_init_tagESF_EEOT_OT0_, symObjAddr: 0x9C4, symBinAddr: 0x100004794, symSize: 0x3C }
  - { offsetInCU: 0xB6B3, offset: 0xB6B3, size: 0x8, addend: 0x0, symName: __ZNSt3__117__compressed_pairIPPNS_16__hash_node_baseIPNS_11__hash_nodeIcPvEEEENS_25__bucket_list_deallocatorINS_9allocatorIS7_EEEEEC2B8ue170006INS_16__value_init_tagESF_EEOT_OT0_, symObjAddr: 0xA00, symBinAddr: 0x1000047D0, symSize: 0x40 }
  - { offsetInCU: 0xB70B, offset: 0xB70B, size: 0x8, addend: 0x0, symName: __ZNSt3__122__compressed_pair_elemIPPNS_16__hash_node_baseIPNS_11__hash_nodeIcPvEEEELi0ELb0EEC2B8ue170006ENS_16__value_init_tagE, symObjAddr: 0xA40, symBinAddr: 0x100004810, symSize: 0x18 }
  - { offsetInCU: 0xB740, offset: 0xB740, size: 0x8, addend: 0x0, symName: __ZNSt3__122__compressed_pair_elemINS_25__bucket_list_deallocatorINS_9allocatorIPNS_16__hash_node_baseIPNS_11__hash_nodeIcPvEEEEEEEELi1ELb0EEC2B8ue170006ENS_16__value_init_tagE, symObjAddr: 0xA58, symBinAddr: 0x100004828, symSize: 0x2C }
  - { offsetInCU: 0xB775, offset: 0xB775, size: 0x8, addend: 0x0, symName: __ZNSt3__125__bucket_list_deallocatorINS_9allocatorIPNS_16__hash_node_baseIPNS_11__hash_nodeIcPvEEEEEEEC1B8ue170006Ev, symObjAddr: 0xA84, symBinAddr: 0x100004854, symSize: 0x2C }
  - { offsetInCU: 0xB79F, offset: 0xB79F, size: 0x8, addend: 0x0, symName: __ZNSt3__125__bucket_list_deallocatorINS_9allocatorIPNS_16__hash_node_baseIPNS_11__hash_nodeIcPvEEEEEEEC2B8ue170006Ev, symObjAddr: 0xAB0, symBinAddr: 0x100004880, symSize: 0x40 }
  - { offsetInCU: 0xB7C9, offset: 0xB7C9, size: 0x8, addend: 0x0, symName: __ZNSt3__117__compressed_pairImNS_9allocatorIPNS_16__hash_node_baseIPNS_11__hash_nodeIcPvEEEEEEEC1B8ue170006IiNS_18__default_init_tagEEEOT_OT0_, symObjAddr: 0xAF0, symBinAddr: 0x1000048C0, symSize: 0x3C }
  - { offsetInCU: 0xB821, offset: 0xB821, size: 0x8, addend: 0x0, symName: __ZNSt3__117__compressed_pairImNS_9allocatorIPNS_16__hash_node_baseIPNS_11__hash_nodeIcPvEEEEEEEC2B8ue170006IiNS_18__default_init_tagEEEOT_OT0_, symObjAddr: 0xB2C, symBinAddr: 0x1000048FC, symSize: 0x40 }
  - { offsetInCU: 0xB879, offset: 0xB879, size: 0x8, addend: 0x0, symName: __ZNSt3__122__compressed_pair_elemImLi0ELb0EEC2B8ue170006IivEEOT_, symObjAddr: 0xB6C, symBinAddr: 0x10000493C, symSize: 0x24 }
  - { offsetInCU: 0xB8BB, offset: 0xB8BB, size: 0x8, addend: 0x0, symName: __ZNSt3__122__compressed_pair_elemINS_9allocatorIPNS_16__hash_node_baseIPNS_11__hash_nodeIcPvEEEEEELi1ELb1EEC2B8ue170006ENS_18__default_init_tagE, symObjAddr: 0xB90, symBinAddr: 0x100004960, symSize: 0x2C }
  - { offsetInCU: 0xB8F0, offset: 0xB8F0, size: 0x8, addend: 0x0, symName: __ZNSt3__19allocatorIPNS_16__hash_node_baseIPNS_11__hash_nodeIcPvEEEEEC2B8ue170006Ev, symObjAddr: 0xBBC, symBinAddr: 0x10000498C, symSize: 0x2C }
  - { offsetInCU: 0xB91A, offset: 0xB91A, size: 0x8, addend: 0x0, symName: __ZNSt3__116__non_trivial_ifILb1ENS_9allocatorIPNS_16__hash_node_baseIPNS_11__hash_nodeIcPvEEEEEEEC2B8ue170006Ev, symObjAddr: 0xBE8, symBinAddr: 0x1000049B8, symSize: 0x14 }
  - { offsetInCU: 0xB944, offset: 0xB944, size: 0x8, addend: 0x0, symName: __ZNSt3__117__compressed_pairINS_16__hash_node_baseIPNS_11__hash_nodeIcPvEEEENS_9allocatorIS4_EEEC2B8ue170006ILb1EvEEv, symObjAddr: 0xBFC, symBinAddr: 0x1000049CC, symSize: 0x34 }
  - { offsetInCU: 0xB979, offset: 0xB979, size: 0x8, addend: 0x0, symName: __ZNSt3__122__compressed_pair_elemINS_16__hash_node_baseIPNS_11__hash_nodeIcPvEEEELi0ELb0EEC2B8ue170006ENS_16__value_init_tagE, symObjAddr: 0xC30, symBinAddr: 0x100004A00, symSize: 0x2C }
  - { offsetInCU: 0xB9AE, offset: 0xB9AE, size: 0x8, addend: 0x0, symName: __ZNSt3__122__compressed_pair_elemINS_9allocatorINS_11__hash_nodeIcPvEEEELi1ELb1EEC2B8ue170006ENS_16__value_init_tagE, symObjAddr: 0xC5C, symBinAddr: 0x100004A2C, symSize: 0x2C }
  - { offsetInCU: 0xB9E3, offset: 0xB9E3, size: 0x8, addend: 0x0, symName: __ZNSt3__116__hash_node_baseIPNS_11__hash_nodeIcPvEEEC1B8ue170006Ev, symObjAddr: 0xC88, symBinAddr: 0x100004A58, symSize: 0x2C }
  - { offsetInCU: 0xBA0D, offset: 0xBA0D, size: 0x8, addend: 0x0, symName: __ZNSt3__116__hash_node_baseIPNS_11__hash_nodeIcPvEEEC2B8ue170006Ev, symObjAddr: 0xCB4, symBinAddr: 0x100004A84, symSize: 0x18 }
  - { offsetInCU: 0xBA37, offset: 0xBA37, size: 0x8, addend: 0x0, symName: __ZNSt3__19allocatorINS_11__hash_nodeIcPvEEEC2B8ue170006Ev, symObjAddr: 0xCCC, symBinAddr: 0x100004A9C, symSize: 0x2C }
  - { offsetInCU: 0xBA61, offset: 0xBA61, size: 0x8, addend: 0x0, symName: __ZNSt3__116__non_trivial_ifILb1ENS_9allocatorINS_11__hash_nodeIcPvEEEEEC2B8ue170006Ev, symObjAddr: 0xCF8, symBinAddr: 0x100004AC8, symSize: 0x14 }
  - { offsetInCU: 0xBA8B, offset: 0xBA8B, size: 0x8, addend: 0x0, symName: __ZNSt3__117__compressed_pairImNS_4hashIcEEEC2B8ue170006IiNS_18__default_init_tagEEEOT_OT0_, symObjAddr: 0xD0C, symBinAddr: 0x100004ADC, symSize: 0x40 }
  - { offsetInCU: 0xBAE3, offset: 0xBAE3, size: 0x8, addend: 0x0, symName: __ZNSt3__122__compressed_pair_elemINS_4hashIcEELi1ELb1EEC2B8ue170006ENS_18__default_init_tagE, symObjAddr: 0xD4C, symBinAddr: 0x100004B1C, symSize: 0x14 }
  - { offsetInCU: 0xBB18, offset: 0xBB18, size: 0x8, addend: 0x0, symName: __ZNSt3__117__compressed_pairIfNS_8equal_toIcEEEC2B8ue170006IfNS_18__default_init_tagEEEOT_OT0_, symObjAddr: 0xD60, symBinAddr: 0x100004B30, symSize: 0x40 }
  - { offsetInCU: 0xBB70, offset: 0xBB70, size: 0x8, addend: 0x0, symName: __ZNSt3__122__compressed_pair_elemIfLi0ELb0EEC2B8ue170006IfvEEOT_, symObjAddr: 0xDA0, symBinAddr: 0x100004B70, symSize: 0x24 }
  - { offsetInCU: 0xBBB2, offset: 0xBBB2, size: 0x8, addend: 0x0, symName: __ZNSt3__122__compressed_pair_elemINS_8equal_toIcEELi1ELb1EEC2B8ue170006ENS_18__default_init_tagE, symObjAddr: 0xDC4, symBinAddr: 0x100004B94, symSize: 0x14 }
  - { offsetInCU: 0xBBE7, offset: 0xBBE7, size: 0x8, addend: 0x0, symName: __ZNSt3__113unordered_setIcNS_4hashIcEENS_8equal_toIcEENS_9allocatorIcEEED2B8ue170006Ev, symObjAddr: 0xDD8, symBinAddr: 0x100004BA8, symSize: 0x2C }
  - { offsetInCU: 0xBC11, offset: 0xBC11, size: 0x8, addend: 0x0, symName: __ZNSt3__112__hash_tableIcNS_4hashIcEENS_8equal_toIcEENS_9allocatorIcEEED1Ev, symObjAddr: 0xE04, symBinAddr: 0x100004BD4, symSize: 0x2C }
  - { offsetInCU: 0xBC3D, offset: 0xBC3D, size: 0x8, addend: 0x0, symName: __ZNSt3__112__hash_tableIcNS_4hashIcEENS_8equal_toIcEENS_9allocatorIcEEED2Ev, symObjAddr: 0xE30, symBinAddr: 0x100004C00, symSize: 0x48 }
  - { offsetInCU: 0xBC69, offset: 0xBC69, size: 0x8, addend: 0x0, symName: __ZNSt3__112__hash_tableIcNS_4hashIcEENS_8equal_toIcEENS_9allocatorIcEEE17__deallocate_nodeEPNS_16__hash_node_baseIPNS_11__hash_nodeIcPvEEEE, symObjAddr: 0xE78, symBinAddr: 0x100004C48, symSize: 0xA8 }
  - { offsetInCU: 0xBCD3, offset: 0xBCD3, size: 0x8, addend: 0x0, symName: __ZNSt3__117__compressed_pairINS_16__hash_node_baseIPNS_11__hash_nodeIcPvEEEENS_9allocatorIS4_EEE5firstB8ue170006Ev, symObjAddr: 0xF20, symBinAddr: 0x100004CF0, symSize: 0x24 }
  - { offsetInCU: 0xBCF9, offset: 0xBCF9, size: 0x8, addend: 0x0, symName: __ZNSt3__110unique_ptrIA_PNS_16__hash_node_baseIPNS_11__hash_nodeIcPvEEEENS_25__bucket_list_deallocatorINS_9allocatorIS7_EEEEED1B8ue170006Ev, symObjAddr: 0xF44, symBinAddr: 0x100004D14, symSize: 0x2C }
  - { offsetInCU: 0xBD23, offset: 0xBD23, size: 0x8, addend: 0x0, symName: __ZNSt3__112__hash_tableIcNS_4hashIcEENS_8equal_toIcEENS_9allocatorIcEEE12__node_allocB8ue170006Ev, symObjAddr: 0xF70, symBinAddr: 0x100004D40, symSize: 0x28 }
  - { offsetInCU: 0xBD49, offset: 0xBD49, size: 0x8, addend: 0x0, symName: __ZNSt3__116__hash_node_baseIPNS_11__hash_nodeIcPvEEE8__upcastB8ue170006Ev, symObjAddr: 0xF98, symBinAddr: 0x100004D68, symSize: 0x24 }
  - { offsetInCU: 0xBD6F, offset: 0xBD6F, size: 0x8, addend: 0x0, symName: __ZNSt3__116allocator_traitsINS_9allocatorINS_11__hash_nodeIcPvEEEEE7destroyB8ue170006IcvvEEvRS5_PT_, symObjAddr: 0xFBC, symBinAddr: 0x100004D8C, symSize: 0x14 }
  - { offsetInCU: 0xBDAA, offset: 0xBDAA, size: 0x8, addend: 0x0, symName: __ZNSt3__122__hash_key_value_typesIcE9__get_ptrB8ue170006ERc, symObjAddr: 0xFD0, symBinAddr: 0x100004DA0, symSize: 0x14 }
  - { offsetInCU: 0xBDCD, offset: 0xBDCD, size: 0x8, addend: 0x0, symName: __ZNSt3__116allocator_traitsINS_9allocatorINS_11__hash_nodeIcPvEEEEE10deallocateB8ue170006ERS5_PS4_m, symObjAddr: 0xFE4, symBinAddr: 0x100004DB4, symSize: 0x34 }
  - { offsetInCU: 0xBE0F, offset: 0xBE0F, size: 0x8, addend: 0x0, symName: __ZNSt3__117__compressed_pairINS_16__hash_node_baseIPNS_11__hash_nodeIcPvEEEENS_9allocatorIS4_EEE6secondB8ue170006Ev, symObjAddr: 0x1018, symBinAddr: 0x100004DE8, symSize: 0x24 }
  - { offsetInCU: 0xBE35, offset: 0xBE35, size: 0x8, addend: 0x0, symName: __ZNSt3__122__compressed_pair_elemINS_9allocatorINS_11__hash_nodeIcPvEEEELi1ELb1EE5__getB8ue170006Ev, symObjAddr: 0x103C, symBinAddr: 0x100004E0C, symSize: 0x14 }
  - { offsetInCU: 0xBE5B, offset: 0xBE5B, size: 0x8, addend: 0x0, symName: __ZNSt3__114pointer_traitsIPNS_16__hash_node_baseIPNS_11__hash_nodeIcPvEEEEE10pointer_toB8ue170006ERS6_, symObjAddr: 0x1050, symBinAddr: 0x100004E20, symSize: 0x14 }
  - { offsetInCU: 0xBE7E, offset: 0xBE7E, size: 0x8, addend: 0x0, symName: __ZNSt3__19allocatorINS_11__hash_nodeIcPvEEE10deallocateB8ue170006EPS3_m, symObjAddr: 0x1064, symBinAddr: 0x100004E34, symSize: 0x44 }
  - { offsetInCU: 0xBEC0, offset: 0xBEC0, size: 0x8, addend: 0x0, symName: __ZNSt3__122__compressed_pair_elemINS_16__hash_node_baseIPNS_11__hash_nodeIcPvEEEELi0ELb0EE5__getB8ue170006Ev, symObjAddr: 0x1124, symBinAddr: 0x100004EF4, symSize: 0x14 }
  - { offsetInCU: 0xBEE6, offset: 0xBEE6, size: 0x8, addend: 0x0, symName: __ZNSt3__110unique_ptrIA_PNS_16__hash_node_baseIPNS_11__hash_nodeIcPvEEEENS_25__bucket_list_deallocatorINS_9allocatorIS7_EEEEED2B8ue170006Ev, symObjAddr: 0x1138, symBinAddr: 0x100004F08, symSize: 0x30 }
  - { offsetInCU: 0xBF10, offset: 0xBF10, size: 0x8, addend: 0x0, symName: __ZNSt3__110unique_ptrIA_PNS_16__hash_node_baseIPNS_11__hash_nodeIcPvEEEENS_25__bucket_list_deallocatorINS_9allocatorIS7_EEEEE5resetB8ue170006EDn, symObjAddr: 0x1168, symBinAddr: 0x100004F38, symSize: 0x6C }
  - { offsetInCU: 0xBF51, offset: 0xBF51, size: 0x8, addend: 0x0, symName: __ZNSt3__117__compressed_pairIPPNS_16__hash_node_baseIPNS_11__hash_nodeIcPvEEEENS_25__bucket_list_deallocatorINS_9allocatorIS7_EEEEE5firstB8ue170006Ev, symObjAddr: 0x11D4, symBinAddr: 0x100004FA4, symSize: 0x24 }
  - { offsetInCU: 0xBF77, offset: 0xBF77, size: 0x8, addend: 0x0, symName: __ZNSt3__117__compressed_pairIPPNS_16__hash_node_baseIPNS_11__hash_nodeIcPvEEEENS_25__bucket_list_deallocatorINS_9allocatorIS7_EEEEE6secondB8ue170006Ev, symObjAddr: 0x11F8, symBinAddr: 0x100004FC8, symSize: 0x28 }
  - { offsetInCU: 0xBF9D, offset: 0xBF9D, size: 0x8, addend: 0x0, symName: __ZNSt3__125__bucket_list_deallocatorINS_9allocatorIPNS_16__hash_node_baseIPNS_11__hash_nodeIcPvEEEEEEEclB8ue170006EPS8_, symObjAddr: 0x1220, symBinAddr: 0x100004FF0, symSize: 0x58 }
  - { offsetInCU: 0xBFD2, offset: 0xBFD2, size: 0x8, addend: 0x0, symName: __ZNSt3__122__compressed_pair_elemIPPNS_16__hash_node_baseIPNS_11__hash_nodeIcPvEEEELi0ELb0EE5__getB8ue170006Ev, symObjAddr: 0x1278, symBinAddr: 0x100005048, symSize: 0x14 }
  - { offsetInCU: 0xBFF8, offset: 0xBFF8, size: 0x8, addend: 0x0, symName: __ZNSt3__122__compressed_pair_elemINS_25__bucket_list_deallocatorINS_9allocatorIPNS_16__hash_node_baseIPNS_11__hash_nodeIcPvEEEEEEEELi1ELb0EE5__getB8ue170006Ev, symObjAddr: 0x128C, symBinAddr: 0x10000505C, symSize: 0x14 }
  - { offsetInCU: 0xC01E, offset: 0xC01E, size: 0x8, addend: 0x0, symName: __ZNSt3__116allocator_traitsINS_9allocatorIPNS_16__hash_node_baseIPNS_11__hash_nodeIcPvEEEEEEE10deallocateB8ue170006ERS9_PS8_m, symObjAddr: 0x12A0, symBinAddr: 0x100005070, symSize: 0x34 }
  - { offsetInCU: 0xC060, offset: 0xC060, size: 0x8, addend: 0x0, symName: __ZNSt3__125__bucket_list_deallocatorINS_9allocatorIPNS_16__hash_node_baseIPNS_11__hash_nodeIcPvEEEEEEE7__allocB8ue170006Ev, symObjAddr: 0x12D4, symBinAddr: 0x1000050A4, symSize: 0x24 }
  - { offsetInCU: 0xC086, offset: 0xC086, size: 0x8, addend: 0x0, symName: __ZNSt3__125__bucket_list_deallocatorINS_9allocatorIPNS_16__hash_node_baseIPNS_11__hash_nodeIcPvEEEEEEE4sizeB8ue170006Ev, symObjAddr: 0x12F8, symBinAddr: 0x1000050C8, symSize: 0x24 }
  - { offsetInCU: 0xC0AC, offset: 0xC0AC, size: 0x8, addend: 0x0, symName: __ZNSt3__19allocatorIPNS_16__hash_node_baseIPNS_11__hash_nodeIcPvEEEEE10deallocateB8ue170006EPS7_m, symObjAddr: 0x131C, symBinAddr: 0x1000050EC, symSize: 0x40 }
  - { offsetInCU: 0xC0EE, offset: 0xC0EE, size: 0x8, addend: 0x0, symName: __ZNSt3__117__compressed_pairImNS_9allocatorIPNS_16__hash_node_baseIPNS_11__hash_nodeIcPvEEEEEEE6secondB8ue170006Ev, symObjAddr: 0x135C, symBinAddr: 0x10000512C, symSize: 0x24 }
  - { offsetInCU: 0xC114, offset: 0xC114, size: 0x8, addend: 0x0, symName: __ZNSt3__122__compressed_pair_elemINS_9allocatorIPNS_16__hash_node_baseIPNS_11__hash_nodeIcPvEEEEEELi1ELb1EE5__getB8ue170006Ev, symObjAddr: 0x1380, symBinAddr: 0x100005150, symSize: 0x14 }
  - { offsetInCU: 0xC13A, offset: 0xC13A, size: 0x8, addend: 0x0, symName: __ZNSt3__117__compressed_pairImNS_9allocatorIPNS_16__hash_node_baseIPNS_11__hash_nodeIcPvEEEEEEE5firstB8ue170006Ev, symObjAddr: 0x1394, symBinAddr: 0x100005164, symSize: 0x24 }
  - { offsetInCU: 0xC160, offset: 0xC160, size: 0x8, addend: 0x0, symName: __ZNSt3__122__compressed_pair_elemImLi0ELb0EE5__getB8ue170006Ev, symObjAddr: 0x13B8, symBinAddr: 0x100005188, symSize: 0x14 }
  - { offsetInCU: 0xC186, offset: 0xC186, size: 0x8, addend: 0x0, symName: __ZNKSt3__112basic_stringIcNS_11char_traitsIcEENS_9allocatorIcEEE4sizeB8ue170006Ev, symObjAddr: 0x13CC, symBinAddr: 0x10000519C, symSize: 0x54 }
  - { offsetInCU: 0xC1AC, offset: 0xC1AC, size: 0x8, addend: 0x0, symName: __ZNKSt3__112basic_stringIcNS_11char_traitsIcEENS_9allocatorIcEEE9__is_longB8ue170006Ev, symObjAddr: 0x1420, symBinAddr: 0x1000051F0, symSize: 0x38 }
  - { offsetInCU: 0xC1D2, offset: 0xC1D2, size: 0x8, addend: 0x0, symName: __ZNKSt3__112basic_stringIcNS_11char_traitsIcEENS_9allocatorIcEEE15__get_long_sizeB8ue170006Ev, symObjAddr: 0x1458, symBinAddr: 0x100005228, symSize: 0x28 }
  - { offsetInCU: 0xC1F8, offset: 0xC1F8, size: 0x8, addend: 0x0, symName: __ZNKSt3__112basic_stringIcNS_11char_traitsIcEENS_9allocatorIcEEE16__get_short_sizeB8ue170006Ev, symObjAddr: 0x1480, symBinAddr: 0x100005250, symSize: 0x34 }
  - { offsetInCU: 0xC21E, offset: 0xC21E, size: 0x8, addend: 0x0, symName: __ZNKSt3__117__compressed_pairINS_12basic_stringIcNS_11char_traitsIcEENS_9allocatorIcEEE5__repES5_E5firstB8ue170006Ev, symObjAddr: 0x14B4, symBinAddr: 0x100005284, symSize: 0x24 }
  - { offsetInCU: 0xC244, offset: 0xC244, size: 0x8, addend: 0x0, symName: __ZNKSt3__122__compressed_pair_elemINS_12basic_stringIcNS_11char_traitsIcEENS_9allocatorIcEEE5__repELi0ELb0EE5__getB8ue170006Ev, symObjAddr: 0x14D8, symBinAddr: 0x1000052A8, symSize: 0x14 }
  - { offsetInCU: 0xC26A, offset: 0xC26A, size: 0x8, addend: 0x0, symName: __ZNSt3__112basic_stringIcNS_11char_traitsIcEENS_9allocatorIcEEE13__get_pointerB8ue170006Ev, symObjAddr: 0x14EC, symBinAddr: 0x1000052BC, symSize: 0x54 }
  - { offsetInCU: 0xC290, offset: 0xC290, size: 0x8, addend: 0x0, symName: __ZNSt3__112basic_stringIcNS_11char_traitsIcEENS_9allocatorIcEEE18__get_long_pointerB8ue170006Ev, symObjAddr: 0x1540, symBinAddr: 0x100005310, symSize: 0x28 }
  - { offsetInCU: 0xC2B6, offset: 0xC2B6, size: 0x8, addend: 0x0, symName: __ZNSt3__112basic_stringIcNS_11char_traitsIcEENS_9allocatorIcEEE19__get_short_pointerB8ue170006Ev, symObjAddr: 0x1568, symBinAddr: 0x100005338, symSize: 0x28 }
  - { offsetInCU: 0xC2DC, offset: 0xC2DC, size: 0x8, addend: 0x0, symName: __ZNSt3__117__compressed_pairINS_12basic_stringIcNS_11char_traitsIcEENS_9allocatorIcEEE5__repES5_E5firstB8ue170006Ev, symObjAddr: 0x1590, symBinAddr: 0x100005360, symSize: 0x24 }
  - { offsetInCU: 0xC302, offset: 0xC302, size: 0x8, addend: 0x0, symName: __ZNSt3__122__compressed_pair_elemINS_12basic_stringIcNS_11char_traitsIcEENS_9allocatorIcEEE5__repELi0ELb0EE5__getB8ue170006Ev, symObjAddr: 0x15B4, symBinAddr: 0x100005384, symSize: 0x14 }
  - { offsetInCU: 0xC328, offset: 0xC328, size: 0x8, addend: 0x0, symName: __ZNSt3__114pointer_traitsIPcE10pointer_toB8ue170006ERc, symObjAddr: 0x15C8, symBinAddr: 0x100005398, symSize: 0x14 }
  - { offsetInCU: 0xC34B, offset: 0xC34B, size: 0x8, addend: 0x0, symName: __ZNSt3__112__hash_tableIcNS_4hashIcEENS_8equal_toIcEENS_9allocatorIcEEE15__insert_uniqueB8ue170006ERKc, symObjAddr: 0x15DC, symBinAddr: 0x1000053AC, symSize: 0x50 }
  - { offsetInCU: 0xC380, offset: 0xC380, size: 0x8, addend: 0x0, symName: __ZNSt3__14pairINS_21__hash_const_iteratorIPNS_11__hash_nodeIcPvEEEEbEC1B8ue170006INS_15__hash_iteratorIS5_EEbLS3_0EEEONS0_IT_T0_EE, symObjAddr: 0x162C, symBinAddr: 0x1000053FC, symSize: 0x34 }
  - { offsetInCU: 0xC3D1, offset: 0xC3D1, size: 0x8, addend: 0x0, symName: __ZNSt3__112__hash_tableIcNS_4hashIcEENS_8equal_toIcEENS_9allocatorIcEEE25__emplace_unique_key_argsIcJRKcEEENS_4pairINS_15__hash_iteratorIPNS_11__hash_nodeIcPvEEEEbEERKT_DpOT0_, symObjAddr: 0x1660, symBinAddr: 0x100005430, symSize: 0x4DC }
  - { offsetInCU: 0xC4B1, offset: 0xC4B1, size: 0x8, addend: 0x0, symName: __ZNSt3__122__hash_key_value_typesIcE9__get_keyB8ue170006ERKc, symObjAddr: 0x1B3C, symBinAddr: 0x10000590C, symSize: 0x14 }
  - { offsetInCU: 0xC4D4, offset: 0xC4D4, size: 0x8, addend: 0x0, symName: __ZNSt3__112__hash_tableIcNS_4hashIcEENS_8equal_toIcEENS_9allocatorIcEEE13hash_functionB8ue170006Ev, symObjAddr: 0x1B50, symBinAddr: 0x100005920, symSize: 0x28 }
  - { offsetInCU: 0xC4FA, offset: 0xC4FA, size: 0x8, addend: 0x0, symName: __ZNKSt3__14hashIcEclB8ue170006Ec, symObjAddr: 0x1B78, symBinAddr: 0x100005948, symSize: 0x18 }
  - { offsetInCU: 0xC52F, offset: 0xC52F, size: 0x8, addend: 0x0, symName: __ZNKSt3__112__hash_tableIcNS_4hashIcEENS_8equal_toIcEENS_9allocatorIcEEE12bucket_countB8ue170006Ev, symObjAddr: 0x1B90, symBinAddr: 0x100005960, symSize: 0x28 }
  - { offsetInCU: 0xC555, offset: 0xC555, size: 0x8, addend: 0x0, symName: __ZNKSt3__110unique_ptrIA_PNS_16__hash_node_baseIPNS_11__hash_nodeIcPvEEEENS_25__bucket_list_deallocatorINS_9allocatorIS7_EEEEEixB8ue170006Em, symObjAddr: 0x1C50, symBinAddr: 0x100005A20, symSize: 0x34 }
  - { offsetInCU: 0xC58A, offset: 0xC58A, size: 0x8, addend: 0x0, symName: __ZNKSt3__116__hash_node_baseIPNS_11__hash_nodeIcPvEEE6__hashB8ue170006Ev, symObjAddr: 0x1C84, symBinAddr: 0x100005A54, symSize: 0x18 }
  - { offsetInCU: 0xC5B0, offset: 0xC5B0, size: 0x8, addend: 0x0, symName: __ZNSt3__112__hash_tableIcNS_4hashIcEENS_8equal_toIcEENS_9allocatorIcEEE6key_eqB8ue170006Ev, symObjAddr: 0x1C9C, symBinAddr: 0x100005A6C, symSize: 0x28 }
  - { offsetInCU: 0xC5D6, offset: 0xC5D6, size: 0x8, addend: 0x0, symName: __ZNKSt3__18equal_toIcEclB8ue170006ERKcS3_, symObjAddr: 0x1CC4, symBinAddr: 0x100005A94, symSize: 0x34 }
  - { offsetInCU: 0xC61A, offset: 0xC61A, size: 0x8, addend: 0x0, symName: __ZNSt3__112__hash_tableIcNS_4hashIcEENS_8equal_toIcEENS_9allocatorIcEEE21__construct_node_hashIRKcJEEENS_10unique_ptrINS_11__hash_nodeIcPvEENS_22__hash_node_destructorINS5_ISE_EEEEEEmOT_DpOT0_, symObjAddr: 0x1CF8, symBinAddr: 0x100005AC8, symSize: 0x138 }
  - { offsetInCU: 0xC68D, offset: 0xC68D, size: 0x8, addend: 0x0, symName: __ZNSt3__112__hash_tableIcNS_4hashIcEENS_8equal_toIcEENS_9allocatorIcEEE4sizeB8ue170006Ev, symObjAddr: 0x1E30, symBinAddr: 0x100005C00, symSize: 0x28 }
  - { offsetInCU: 0xC6B3, offset: 0xC6B3, size: 0x8, addend: 0x0, symName: __ZNSt3__112__hash_tableIcNS_4hashIcEENS_8equal_toIcEENS_9allocatorIcEEE15max_load_factorB8ue170006Ev, symObjAddr: 0x1E58, symBinAddr: 0x100005C28, symSize: 0x28 }
  - { offsetInCU: 0xC6D9, offset: 0xC6D9, size: 0x8, addend: 0x0, symName: __ZNSt3__112__hash_tableIcNS_4hashIcEENS_8equal_toIcEENS_9allocatorIcEEE15__rehash_uniqueB8ue170006Em, symObjAddr: 0x1E80, symBinAddr: 0x100005C50, symSize: 0x2C }
  - { offsetInCU: 0xC70D, offset: 0xC70D, size: 0x8, addend: 0x0, symName: __Z4ceilB8ue170006f, symObjAddr: 0x1F28, symBinAddr: 0x100005CF8, symSize: 0x18 }
  - { offsetInCU: 0xC73C, offset: 0xC73C, size: 0x8, addend: 0x0, symName: __ZNSt3__116__hash_node_baseIPNS_11__hash_nodeIcPvEEE5__ptrB8ue170006Ev, symObjAddr: 0x1F40, symBinAddr: 0x100005D10, symSize: 0x24 }
  - { offsetInCU: 0xC762, offset: 0xC762, size: 0x8, addend: 0x0, symName: __ZNKSt3__110unique_ptrINS_11__hash_nodeIcPvEENS_22__hash_node_destructorINS_9allocatorIS3_EEEEEptB8ue170006Ev, symObjAddr: 0x1F64, symBinAddr: 0x100005D34, symSize: 0x28 }
  - { offsetInCU: 0xC788, offset: 0xC788, size: 0x8, addend: 0x0, symName: __ZNKSt3__110unique_ptrINS_11__hash_nodeIcPvEENS_22__hash_node_destructorINS_9allocatorIS3_EEEEE3getB8ue170006Ev, symObjAddr: 0x1F8C, symBinAddr: 0x100005D5C, symSize: 0x28 }
  - { offsetInCU: 0xC7AE, offset: 0xC7AE, size: 0x8, addend: 0x0, symName: __ZNSt3__110unique_ptrINS_11__hash_nodeIcPvEENS_22__hash_node_destructorINS_9allocatorIS3_EEEEE7releaseB8ue170006Ev, symObjAddr: 0x1FB4, symBinAddr: 0x100005D84, symSize: 0x44 }
  - { offsetInCU: 0xC7E3, offset: 0xC7E3, size: 0x8, addend: 0x0, symName: __ZNSt3__110unique_ptrINS_11__hash_nodeIcPvEENS_22__hash_node_destructorINS_9allocatorIS3_EEEEED1B8ue170006Ev, symObjAddr: 0x1FF8, symBinAddr: 0x100005DC8, symSize: 0x2C }
  - { offsetInCU: 0xC80D, offset: 0xC80D, size: 0x8, addend: 0x0, symName: __ZNSt3__115__hash_iteratorIPNS_11__hash_nodeIcPvEEEC1B8ue170006EPNS_16__hash_node_baseIS4_EE, symObjAddr: 0x2024, symBinAddr: 0x100005DF4, symSize: 0x34 }
  - { offsetInCU: 0xC850, offset: 0xC850, size: 0x8, addend: 0x0, symName: __ZNSt3__14pairINS_15__hash_iteratorIPNS_11__hash_nodeIcPvEEEEbEC1B8ue170006IS6_RbLS3_0EEEOT_OT0_, symObjAddr: 0x2058, symBinAddr: 0x100005E28, symSize: 0x3C }
  - { offsetInCU: 0xC8AE, offset: 0xC8AE, size: 0x8, addend: 0x0, symName: __ZNSt3__117__compressed_pairImNS_4hashIcEEE6secondB8ue170006Ev, symObjAddr: 0x2094, symBinAddr: 0x100005E64, symSize: 0x24 }
  - { offsetInCU: 0xC8D4, offset: 0xC8D4, size: 0x8, addend: 0x0, symName: __ZNSt3__122__compressed_pair_elemINS_4hashIcEELi1ELb1EE5__getB8ue170006Ev, symObjAddr: 0x20B8, symBinAddr: 0x100005E88, symSize: 0x14 }
  - { offsetInCU: 0xC8FA, offset: 0xC8FA, size: 0x8, addend: 0x0, symName: __ZNKSt3__110unique_ptrIA_PNS_16__hash_node_baseIPNS_11__hash_nodeIcPvEEEENS_25__bucket_list_deallocatorINS_9allocatorIS7_EEEEE11get_deleterB8ue170006Ev, symObjAddr: 0x20CC, symBinAddr: 0x100005E9C, symSize: 0x24 }
  - { offsetInCU: 0xC920, offset: 0xC920, size: 0x8, addend: 0x0, symName: __ZNKSt3__125__bucket_list_deallocatorINS_9allocatorIPNS_16__hash_node_baseIPNS_11__hash_nodeIcPvEEEEEEE4sizeB8ue170006Ev, symObjAddr: 0x20F0, symBinAddr: 0x100005EC0, symSize: 0x28 }
  - { offsetInCU: 0xC946, offset: 0xC946, size: 0x8, addend: 0x0, symName: __ZNKSt3__117__compressed_pairIPPNS_16__hash_node_baseIPNS_11__hash_nodeIcPvEEEENS_25__bucket_list_deallocatorINS_9allocatorIS7_EEEEE6secondB8ue170006Ev, symObjAddr: 0x2118, symBinAddr: 0x100005EE8, symSize: 0x28 }
  - { offsetInCU: 0xC96C, offset: 0xC96C, size: 0x8, addend: 0x0, symName: __ZNKSt3__122__compressed_pair_elemINS_25__bucket_list_deallocatorINS_9allocatorIPNS_16__hash_node_baseIPNS_11__hash_nodeIcPvEEEEEEEELi1ELb0EE5__getB8ue170006Ev, symObjAddr: 0x2140, symBinAddr: 0x100005F10, symSize: 0x14 }
  - { offsetInCU: 0xC992, offset: 0xC992, size: 0x8, addend: 0x0, symName: __ZNKSt3__117__compressed_pairImNS_9allocatorIPNS_16__hash_node_baseIPNS_11__hash_nodeIcPvEEEEEEE5firstB8ue170006Ev, symObjAddr: 0x2154, symBinAddr: 0x100005F24, symSize: 0x24 }
  - { offsetInCU: 0xC9B8, offset: 0xC9B8, size: 0x8, addend: 0x0, symName: __ZNKSt3__122__compressed_pair_elemImLi0ELb0EE5__getB8ue170006Ev, symObjAddr: 0x2178, symBinAddr: 0x100005F48, symSize: 0x14 }
  - { offsetInCU: 0xC9DE, offset: 0xC9DE, size: 0x8, addend: 0x0, symName: __ZNKSt3__117__compressed_pairIPPNS_16__hash_node_baseIPNS_11__hash_nodeIcPvEEEENS_25__bucket_list_deallocatorINS_9allocatorIS7_EEEEE5firstB8ue170006Ev, symObjAddr: 0x218C, symBinAddr: 0x100005F5C, symSize: 0x24 }
  - { offsetInCU: 0xCA04, offset: 0xCA04, size: 0x8, addend: 0x0, symName: __ZNKSt3__122__compressed_pair_elemIPPNS_16__hash_node_baseIPNS_11__hash_nodeIcPvEEEELi0ELb0EE5__getB8ue170006Ev, symObjAddr: 0x21B0, symBinAddr: 0x100005F80, symSize: 0x14 }
  - { offsetInCU: 0xCA2A, offset: 0xCA2A, size: 0x8, addend: 0x0, symName: __ZNSt3__117__compressed_pairIfNS_8equal_toIcEEE6secondB8ue170006Ev, symObjAddr: 0x21C4, symBinAddr: 0x100005F94, symSize: 0x24 }
  - { offsetInCU: 0xCA50, offset: 0xCA50, size: 0x8, addend: 0x0, symName: __ZNSt3__122__compressed_pair_elemINS_8equal_toIcEELi1ELb1EE5__getB8ue170006Ev, symObjAddr: 0x21E8, symBinAddr: 0x100005FB8, symSize: 0x14 }
  - { offsetInCU: 0xCA76, offset: 0xCA76, size: 0x8, addend: 0x0, symName: __ZNSt3__116allocator_traitsINS_9allocatorINS_11__hash_nodeIcPvEEEEE8allocateB8ue170006ERS5_m, symObjAddr: 0x21FC, symBinAddr: 0x100005FCC, symSize: 0x2C }
  - { offsetInCU: 0xCAA9, offset: 0xCAA9, size: 0x8, addend: 0x0, symName: __ZNSt3__122__hash_node_destructorINS_9allocatorINS_11__hash_nodeIcPvEEEEEC1B8ue170006ERS5_b, symObjAddr: 0x2228, symBinAddr: 0x100005FF8, symSize: 0x48 }
  - { offsetInCU: 0xCAF6, offset: 0xCAF6, size: 0x8, addend: 0x0, symName: __ZNSt3__110unique_ptrINS_11__hash_nodeIcPvEENS_22__hash_node_destructorINS_9allocatorIS3_EEEEEC1B8ue170006ILb1EvEEPS3_NS_16__dependent_typeINS_27__unique_ptr_deleter_sfinaeIS7_EEXT_EE20__good_rval_ref_typeE, symObjAddr: 0x2270, symBinAddr: 0x100006040, symSize: 0x3C }
  - { offsetInCU: 0xCB47, offset: 0xCB47, size: 0x8, addend: 0x0, symName: __ZNSt3__116allocator_traitsINS_9allocatorINS_11__hash_nodeIcPvEEEEE9constructB8ue170006IcJRKcEvEEvRS5_PT_DpOT0_, symObjAddr: 0x22AC, symBinAddr: 0x10000607C, symSize: 0x34 }
  - { offsetInCU: 0xCB9E, offset: 0xCB9E, size: 0x8, addend: 0x0, symName: __ZNSt3__110unique_ptrINS_11__hash_nodeIcPvEENS_22__hash_node_destructorINS_9allocatorIS3_EEEEE11get_deleterB8ue170006Ev, symObjAddr: 0x22E0, symBinAddr: 0x1000060B0, symSize: 0x24 }
  - { offsetInCU: 0xCBC4, offset: 0xCBC4, size: 0x8, addend: 0x0, symName: __ZNSt3__19allocatorINS_11__hash_nodeIcPvEEE8allocateB8ue170006Em, symObjAddr: 0x2304, symBinAddr: 0x1000060D4, symSize: 0x5C }
  - { offsetInCU: 0xCC02, offset: 0xCC02, size: 0x8, addend: 0x0, symName: __ZNSt3__116allocator_traitsINS_9allocatorINS_11__hash_nodeIcPvEEEEE8max_sizeB8ue170006IS5_vEEmRKS5_, symObjAddr: 0x2360, symBinAddr: 0x100006130, symSize: 0x24 }
  - { offsetInCU: 0xCC30, offset: 0xCC30, size: 0x8, addend: 0x0, symName: __ZNKSt3__19allocatorINS_11__hash_nodeIcPvEEE8max_sizeB8ue170006Ev, symObjAddr: 0x23E0, symBinAddr: 0x1000061B0, symSize: 0x18 }
  - { offsetInCU: 0xCC56, offset: 0xCC56, size: 0x8, addend: 0x0, symName: __ZNSt3__122__hash_node_destructorINS_9allocatorINS_11__hash_nodeIcPvEEEEEC2B8ue170006ERS5_b, symObjAddr: 0x241C, symBinAddr: 0x1000061EC, symSize: 0x38 }
  - { offsetInCU: 0xCC9E, offset: 0xCC9E, size: 0x8, addend: 0x0, symName: __ZNSt3__110unique_ptrINS_11__hash_nodeIcPvEENS_22__hash_node_destructorINS_9allocatorIS3_EEEEEC2B8ue170006ILb1EvEEPS3_NS_16__dependent_typeINS_27__unique_ptr_deleter_sfinaeIS7_EEXT_EE20__good_rval_ref_typeE, symObjAddr: 0x2454, symBinAddr: 0x100006224, symSize: 0x48 }
  - { offsetInCU: 0xCCEF, offset: 0xCCEF, size: 0x8, addend: 0x0, symName: __ZNSt3__117__compressed_pairIPNS_11__hash_nodeIcPvEENS_22__hash_node_destructorINS_9allocatorIS3_EEEEEC1B8ue170006IRS4_S8_EEOT_OT0_, symObjAddr: 0x249C, symBinAddr: 0x10000626C, symSize: 0x3C }
  - { offsetInCU: 0xCD47, offset: 0xCD47, size: 0x8, addend: 0x0, symName: __ZNSt3__117__compressed_pairIPNS_11__hash_nodeIcPvEENS_22__hash_node_destructorINS_9allocatorIS3_EEEEEC2B8ue170006IRS4_S8_EEOT_OT0_, symObjAddr: 0x24D8, symBinAddr: 0x1000062A8, symSize: 0x48 }
  - { offsetInCU: 0xCD9F, offset: 0xCD9F, size: 0x8, addend: 0x0, symName: __ZNSt3__122__compressed_pair_elemIPNS_11__hash_nodeIcPvEELi0ELb0EEC2B8ue170006IRS4_vEEOT_, symObjAddr: 0x2520, symBinAddr: 0x1000062F0, symSize: 0x24 }
  - { offsetInCU: 0xCDE1, offset: 0xCDE1, size: 0x8, addend: 0x0, symName: __ZNSt3__122__compressed_pair_elemINS_22__hash_node_destructorINS_9allocatorINS_11__hash_nodeIcPvEEEEEELi1ELb0EEC2B8ue170006IS7_vEEOT_, symObjAddr: 0x2544, symBinAddr: 0x100006314, symSize: 0x24 }
  - { offsetInCU: 0xCE23, offset: 0xCE23, size: 0x8, addend: 0x0, symName: __ZNSt3__19allocatorINS_11__hash_nodeIcPvEEE9constructB8ue170006IcJRKcEEEvPT_DpOT0_, symObjAddr: 0x2568, symBinAddr: 0x100006338, symSize: 0x28 }
  - { offsetInCU: 0xCE79, offset: 0xCE79, size: 0x8, addend: 0x0, symName: __ZNSt3__117__compressed_pairIPNS_11__hash_nodeIcPvEENS_22__hash_node_destructorINS_9allocatorIS3_EEEEE6secondB8ue170006Ev, symObjAddr: 0x2590, symBinAddr: 0x100006360, symSize: 0x28 }
  - { offsetInCU: 0xCE9F, offset: 0xCE9F, size: 0x8, addend: 0x0, symName: __ZNSt3__122__compressed_pair_elemINS_22__hash_node_destructorINS_9allocatorINS_11__hash_nodeIcPvEEEEEELi1ELb0EE5__getB8ue170006Ev, symObjAddr: 0x25B8, symBinAddr: 0x100006388, symSize: 0x14 }
  - { offsetInCU: 0xCEC5, offset: 0xCEC5, size: 0x8, addend: 0x0, symName: __ZNSt3__117__compressed_pairImNS_4hashIcEEE5firstB8ue170006Ev, symObjAddr: 0x25CC, symBinAddr: 0x10000639C, symSize: 0x24 }
  - { offsetInCU: 0xCEEB, offset: 0xCEEB, size: 0x8, addend: 0x0, symName: __ZNSt3__117__compressed_pairIfNS_8equal_toIcEEE5firstB8ue170006Ev, symObjAddr: 0x25F0, symBinAddr: 0x1000063C0, symSize: 0x24 }
  - { offsetInCU: 0xCF11, offset: 0xCF11, size: 0x8, addend: 0x0, symName: __ZNSt3__122__compressed_pair_elemIfLi0ELb0EE5__getB8ue170006Ev, symObjAddr: 0x2614, symBinAddr: 0x1000063E4, symSize: 0x14 }
  - { offsetInCU: 0xCF37, offset: 0xCF37, size: 0x8, addend: 0x0, symName: __ZNSt3__112__hash_tableIcNS_4hashIcEENS_8equal_toIcEENS_9allocatorIcEEE8__rehashILb1EEEvm, symObjAddr: 0x2628, symBinAddr: 0x1000063F8, symSize: 0x1A8 }
  - { offsetInCU: 0xCF87, offset: 0xCF87, size: 0x8, addend: 0x0, symName: __ZNSt3__112__hash_tableIcNS_4hashIcEENS_8equal_toIcEENS_9allocatorIcEEE11__do_rehashILb1EEEvm, symObjAddr: 0x27D0, symBinAddr: 0x1000065A0, symSize: 0x288 }
  - { offsetInCU: 0xD06E, offset: 0xD06E, size: 0x8, addend: 0x0, symName: __ZNSt3__110unique_ptrIA_PNS_16__hash_node_baseIPNS_11__hash_nodeIcPvEEEENS_25__bucket_list_deallocatorINS_9allocatorIS7_EEEEE11get_deleterB8ue170006Ev, symObjAddr: 0x2AC4, symBinAddr: 0x100006894, symSize: 0x24 }
  - { offsetInCU: 0xD094, offset: 0xD094, size: 0x8, addend: 0x0, symName: __ZNSt3__110unique_ptrIA_PNS_16__hash_node_baseIPNS_11__hash_nodeIcPvEEEENS_25__bucket_list_deallocatorINS_9allocatorIS7_EEEEE5resetB8ue170006IPS7_EENS_9enable_ifIXsr28_CheckArrayPointerConversionIT_EE5valueEvE4typeESH_, symObjAddr: 0x2AE8, symBinAddr: 0x1000068B8, symSize: 0x78 }
  - { offsetInCU: 0xD0E1, offset: 0xD0E1, size: 0x8, addend: 0x0, symName: __ZNSt3__116allocator_traitsINS_9allocatorIPNS_16__hash_node_baseIPNS_11__hash_nodeIcPvEEEEEEE8allocateB8ue170006ERS9_m, symObjAddr: 0x2B60, symBinAddr: 0x100006930, symSize: 0x2C }
  - { offsetInCU: 0xD114, offset: 0xD114, size: 0x8, addend: 0x0, symName: __ZNSt3__19allocatorIPNS_16__hash_node_baseIPNS_11__hash_nodeIcPvEEEEE8allocateB8ue170006Em, symObjAddr: 0x2B8C, symBinAddr: 0x10000695C, symSize: 0x58 }
  - { offsetInCU: 0xD152, offset: 0xD152, size: 0x8, addend: 0x0, symName: __ZNSt3__116allocator_traitsINS_9allocatorIPNS_16__hash_node_baseIPNS_11__hash_nodeIcPvEEEEEEE8max_sizeB8ue170006IS9_vEEmRKS9_, symObjAddr: 0x2BE4, symBinAddr: 0x1000069B4, symSize: 0x24 }
  - { offsetInCU: 0xD180, offset: 0xD180, size: 0x8, addend: 0x0, symName: __ZNKSt3__19allocatorIPNS_16__hash_node_baseIPNS_11__hash_nodeIcPvEEEEE8max_sizeB8ue170006Ev, symObjAddr: 0x2C08, symBinAddr: 0x1000069D8, symSize: 0x14 }
  - { offsetInCU: 0xD1B0, offset: 0xD1B0, size: 0x8, addend: 0x0, symName: __ZNKSt3__16__lessIvvEclB8ue170006ImmEEbRKT_RKT0_, symObjAddr: 0x2C8C, symBinAddr: 0x100006A5C, symSize: 0x34 }
  - { offsetInCU: 0xD204, offset: 0xD204, size: 0x8, addend: 0x0, symName: __ZNKSt3__117__compressed_pairIPNS_11__hash_nodeIcPvEENS_22__hash_node_destructorINS_9allocatorIS3_EEEEE5firstB8ue170006Ev, symObjAddr: 0x2CC0, symBinAddr: 0x100006A90, symSize: 0x24 }
  - { offsetInCU: 0xD22A, offset: 0xD22A, size: 0x8, addend: 0x0, symName: __ZNKSt3__122__compressed_pair_elemIPNS_11__hash_nodeIcPvEELi0ELb0EE5__getB8ue170006Ev, symObjAddr: 0x2CE4, symBinAddr: 0x100006AB4, symSize: 0x14 }
  - { offsetInCU: 0xD250, offset: 0xD250, size: 0x8, addend: 0x0, symName: __ZNSt3__117__compressed_pairIPNS_11__hash_nodeIcPvEENS_22__hash_node_destructorINS_9allocatorIS3_EEEEE5firstB8ue170006Ev, symObjAddr: 0x2CF8, symBinAddr: 0x100006AC8, symSize: 0x24 }
  - { offsetInCU: 0xD276, offset: 0xD276, size: 0x8, addend: 0x0, symName: __ZNSt3__122__compressed_pair_elemIPNS_11__hash_nodeIcPvEELi0ELb0EE5__getB8ue170006Ev, symObjAddr: 0x2D1C, symBinAddr: 0x100006AEC, symSize: 0x14 }
  - { offsetInCU: 0xD29C, offset: 0xD29C, size: 0x8, addend: 0x0, symName: __ZNSt3__110unique_ptrINS_11__hash_nodeIcPvEENS_22__hash_node_destructorINS_9allocatorIS3_EEEEED2B8ue170006Ev, symObjAddr: 0x2D30, symBinAddr: 0x100006B00, symSize: 0x30 }
  - { offsetInCU: 0xD2C6, offset: 0xD2C6, size: 0x8, addend: 0x0, symName: __ZNSt3__110unique_ptrINS_11__hash_nodeIcPvEENS_22__hash_node_destructorINS_9allocatorIS3_EEEEE5resetB8ue170006EPS3_, symObjAddr: 0x2D60, symBinAddr: 0x100006B30, symSize: 0x78 }
  - { offsetInCU: 0xD30A, offset: 0xD30A, size: 0x8, addend: 0x0, symName: __ZNSt3__122__hash_node_destructorINS_9allocatorINS_11__hash_nodeIcPvEEEEEclB8ue170006EPS4_, symObjAddr: 0x2DD8, symBinAddr: 0x100006BA8, symSize: 0x88 }
  - { offsetInCU: 0xD33F, offset: 0xD33F, size: 0x8, addend: 0x0, symName: __ZNSt3__115__hash_iteratorIPNS_11__hash_nodeIcPvEEEC2B8ue170006EPNS_16__hash_node_baseIS4_EE, symObjAddr: 0x2E60, symBinAddr: 0x100006C30, symSize: 0x20 }
  - { offsetInCU: 0xD378, offset: 0xD378, size: 0x8, addend: 0x0, symName: __ZNSt3__14pairINS_15__hash_iteratorIPNS_11__hash_nodeIcPvEEEEbEC2B8ue170006IS6_RbLS3_0EEEOT_OT0_, symObjAddr: 0x2E80, symBinAddr: 0x100006C50, symSize: 0x38 }
  - { offsetInCU: 0xD3D6, offset: 0xD3D6, size: 0x8, addend: 0x0, symName: __ZNSt3__14pairINS_21__hash_const_iteratorIPNS_11__hash_nodeIcPvEEEEbEC2B8ue170006INS_15__hash_iteratorIS5_EEbLS3_0EEEONS0_IT_T0_EE, symObjAddr: 0x2EB8, symBinAddr: 0x100006C88, symSize: 0x44 }
  - { offsetInCU: 0xD427, offset: 0xD427, size: 0x8, addend: 0x0, symName: __ZNSt3__121__hash_const_iteratorIPNS_11__hash_nodeIcPvEEEC1B8ue170006ERKNS_15__hash_iteratorIS4_EE, symObjAddr: 0x2EFC, symBinAddr: 0x100006CCC, symSize: 0x34 }
  - { offsetInCU: 0xD460, offset: 0xD460, size: 0x8, addend: 0x0, symName: __ZNSt3__121__hash_const_iteratorIPNS_11__hash_nodeIcPvEEEC2B8ue170006ERKNS_15__hash_iteratorIS4_EE, symObjAddr: 0x2F30, symBinAddr: 0x100006D00, symSize: 0x24 }
  - { offsetInCU: 0xD531, offset: 0xD531, size: 0x8, addend: 0x0, symName: __ZNKSt3__113basic_istreamIcNS_11char_traitsIcEEE6sentrycvbB8ue170006Ev, symObjAddr: 0x2F54, symBinAddr: 0x100006D24, symSize: 0x1C }
  - { offsetInCU: 0xD557, offset: 0xD557, size: 0x8, addend: 0x0, symName: __ZNKSt3__19basic_iosIcNS_11char_traitsIcEEE5rdbufB8ue170006Ev, symObjAddr: 0x2F70, symBinAddr: 0x100006D40, symSize: 0x24 }
  - { offsetInCU: 0xD57F, offset: 0xD57F, size: 0x8, addend: 0x0, symName: __ZNSt3__115basic_streambufIcNS_11char_traitsIcEEE6sbumpcB8ue170006Ev, symObjAddr: 0x2F94, symBinAddr: 0x100006D64, symSize: 0x78 }
  - { offsetInCU: 0xD5A5, offset: 0xD5A5, size: 0x8, addend: 0x0, symName: __ZNSt3__111char_traitsIcE11eq_int_typeB8ue170006Eii, symObjAddr: 0x300C, symBinAddr: 0x100006DDC, symSize: 0x28 }
  - { offsetInCU: 0xD5D8, offset: 0xD5D8, size: 0x8, addend: 0x0, symName: __ZNSt3__111char_traitsIcE3eofB8ue170006Ev, symObjAddr: 0x3034, symBinAddr: 0x100006E04, symSize: 0x8 }
  - { offsetInCU: 0xD5EC, offset: 0xD5EC, size: 0x8, addend: 0x0, symName: __ZNSt3__111char_traitsIcE12to_char_typeB8ue170006Ei, symObjAddr: 0x303C, symBinAddr: 0x100006E0C, symSize: 0x18 }
  - { offsetInCU: 0xD60F, offset: 0xD60F, size: 0x8, addend: 0x0, symName: __ZNSt3__18ios_base18__setstate_nothrowB8ue170006Ej, symObjAddr: 0x3054, symBinAddr: 0x100006E24, symSize: 0x64 }
  - { offsetInCU: 0xD644, offset: 0xD644, size: 0x8, addend: 0x0, symName: __ZNKSt3__19basic_iosIcNS_11char_traitsIcEEE10exceptionsB8ue170006Ev, symObjAddr: 0x30B8, symBinAddr: 0x100006E88, symSize: 0x24 }
  - { offsetInCU: 0xD66A, offset: 0xD66A, size: 0x8, addend: 0x0, symName: __ZNSt3__19basic_iosIcNS_11char_traitsIcEEE8setstateB8ue170006Ej, symObjAddr: 0x30DC, symBinAddr: 0x100006EAC, symSize: 0x2C }
  - { offsetInCU: 0xD69F, offset: 0xD69F, size: 0x8, addend: 0x0, symName: __ZNKSt3__18ios_base5rdbufB8ue170006Ev, symObjAddr: 0x3108, symBinAddr: 0x100006ED8, symSize: 0x18 }
  - { offsetInCU: 0xD6C5, offset: 0xD6C5, size: 0x8, addend: 0x0, symName: __ZNSt3__111char_traitsIcE11to_int_typeB8ue170006Ec, symObjAddr: 0x3120, symBinAddr: 0x100006EF0, symSize: 0x14 }
  - { offsetInCU: 0xD6E9, offset: 0xD6E9, size: 0x8, addend: 0x0, symName: __ZNKSt3__18ios_base10exceptionsB8ue170006Ev, symObjAddr: 0x3134, symBinAddr: 0x100006F04, symSize: 0x18 }
  - { offsetInCU: 0xD711, offset: 0xD711, size: 0x8, addend: 0x0, symName: __ZNSt3__18ios_base8setstateB8ue170006Ej, symObjAddr: 0x314C, symBinAddr: 0x100006F1C, symSize: 0x34 }
  - { offsetInCU: 0xD748, offset: 0xD748, size: 0x8, addend: 0x0, symName: __ZNSt3__112__hash_tableIcNS_4hashIcEENS_8equal_toIcEENS_9allocatorIcEEE4findIcEENS_15__hash_iteratorIPNS_11__hash_nodeIcPvEEEERKT_, symObjAddr: 0x3180, symBinAddr: 0x100006F50, symSize: 0x1B4 }
  - { offsetInCU: 0xD7D3, offset: 0xD7D3, size: 0x8, addend: 0x0, symName: __ZNSt3__112__hash_tableIcNS_4hashIcEENS_8equal_toIcEENS_9allocatorIcEEE3endEv, symObjAddr: 0x3334, symBinAddr: 0x100007104, symSize: 0x2C }
  - { offsetInCU: 0xD819, offset: 0xD819, size: 0x8, addend: 0x0, symName: __ZNKSt3__113basic_ostreamIcNS_11char_traitsIcEEE6sentrycvbB8ue170006Ev, symObjAddr: 0x357C, symBinAddr: 0x10000734C, symSize: 0x1C }
  - { offsetInCU: 0xD83F, offset: 0xD83F, size: 0x8, addend: 0x0, symName: __ZNSt3__119ostreambuf_iteratorIcNS_11char_traitsIcEEEC1B8ue170006ERNS_13basic_ostreamIcS2_EE, symObjAddr: 0x37D8, symBinAddr: 0x1000075A8, symSize: 0x34 }
  - { offsetInCU: 0xD877, offset: 0xD877, size: 0x8, addend: 0x0, symName: __ZNKSt3__18ios_base5flagsB8ue170006Ev, symObjAddr: 0x380C, symBinAddr: 0x1000075DC, symSize: 0x18 }
  - { offsetInCU: 0xD89F, offset: 0xD89F, size: 0x8, addend: 0x0, symName: __ZNKSt3__19basic_iosIcNS_11char_traitsIcEEE4fillB8ue170006Ev, symObjAddr: 0x3824, symBinAddr: 0x1000075F4, symSize: 0x64 }
  - { offsetInCU: 0xD8C7, offset: 0xD8C7, size: 0x8, addend: 0x0, symName: __ZNKSt3__119ostreambuf_iteratorIcNS_11char_traitsIcEEE6failedB8ue170006Ev, symObjAddr: 0x3888, symBinAddr: 0x100007658, symSize: 0x24 }
  - { offsetInCU: 0xD8ED, offset: 0xD8ED, size: 0x8, addend: 0x0, symName: __ZNKSt3__18ios_base5widthB8ue170006Ev, symObjAddr: 0x38AC, symBinAddr: 0x10000767C, symSize: 0x18 }
  - { offsetInCU: 0xD915, offset: 0xD915, size: 0x8, addend: 0x0, symName: __ZNSt3__115basic_streambufIcNS_11char_traitsIcEEE5sputnB8ue170006EPKcl, symObjAddr: 0x38C4, symBinAddr: 0x100007694, symSize: 0x3C }
  - { offsetInCU: 0xD957, offset: 0xD957, size: 0x8, addend: 0x0, symName: __ZNSt3__112basic_stringIcNS_11char_traitsIcEENS_9allocatorIcEEEC1B8ue170006Emc, symObjAddr: 0x3900, symBinAddr: 0x1000076D0, symSize: 0x3C }
  - { offsetInCU: 0xD99F, offset: 0xD99F, size: 0x8, addend: 0x0, symName: __ZNKSt3__112basic_stringIcNS_11char_traitsIcEENS_9allocatorIcEEE4dataB8ue170006Ev, symObjAddr: 0x393C, symBinAddr: 0x10000770C, symSize: 0x28 }
  - { offsetInCU: 0xD9C5, offset: 0xD9C5, size: 0x8, addend: 0x0, symName: __ZNSt3__18ios_base5widthB8ue170006El, symObjAddr: 0x3964, symBinAddr: 0x100007734, symSize: 0x2C }
  - { offsetInCU: 0xDA0B, offset: 0xDA0B, size: 0x8, addend: 0x0, symName: __ZNSt3__112basic_stringIcNS_11char_traitsIcEENS_9allocatorIcEEEC2B8ue170006Emc, symObjAddr: 0x3990, symBinAddr: 0x100007760, symSize: 0x4C }
  - { offsetInCU: 0xDA53, offset: 0xDA53, size: 0x8, addend: 0x0, symName: __ZNKSt3__112basic_stringIcNS_11char_traitsIcEENS_9allocatorIcEEE13__get_pointerB8ue170006Ev, symObjAddr: 0x39F0, symBinAddr: 0x1000077C0, symSize: 0x54 }
  - { offsetInCU: 0xDA79, offset: 0xDA79, size: 0x8, addend: 0x0, symName: __ZNKSt3__112basic_stringIcNS_11char_traitsIcEENS_9allocatorIcEEE18__get_long_pointerB8ue170006Ev, symObjAddr: 0x3A44, symBinAddr: 0x100007814, symSize: 0x28 }
  - { offsetInCU: 0xDA9F, offset: 0xDA9F, size: 0x8, addend: 0x0, symName: __ZNKSt3__112basic_stringIcNS_11char_traitsIcEENS_9allocatorIcEEE19__get_short_pointerB8ue170006Ev, symObjAddr: 0x3A6C, symBinAddr: 0x10000783C, symSize: 0x28 }
  - { offsetInCU: 0xDAC5, offset: 0xDAC5, size: 0x8, addend: 0x0, symName: __ZNSt3__114pointer_traitsIPKcE10pointer_toB8ue170006ERS1_, symObjAddr: 0x3A94, symBinAddr: 0x100007864, symSize: 0x14 }
  - { offsetInCU: 0xDAE8, offset: 0xDAE8, size: 0x8, addend: 0x0, symName: __ZNSt3__119ostreambuf_iteratorIcNS_11char_traitsIcEEEC2B8ue170006ERNS_13basic_ostreamIcS2_EE, symObjAddr: 0x3AA8, symBinAddr: 0x100007878, symSize: 0x54 }
  - { offsetInCU: 0xDB20, offset: 0xDB20, size: 0x8, addend: 0x0, symName: __ZNKSt3__19basic_iosIcNS_11char_traitsIcEEE5widenB8ue170006Ec, symObjAddr: 0x3AFC, symBinAddr: 0x1000078CC, symSize: 0x84 }
  - { offsetInCU: 0xDB8E, offset: 0xDB8E, size: 0x8, addend: 0x0, symName: __ZNKSt3__15ctypeIcE5widenB8ue170006Ec, symObjAddr: 0x3BAC, symBinAddr: 0x10000797C, symSize: 0x38 }
...
