---
triple:          'arm64-apple-darwin'
binary-path:     '/Users/sajidhasan/VSCODE/vJudge1'
relocations:
  - { offsetInCU: 0x5B1D, offset: 0x5B1D, size: 0x8, addend: 0x0, symName: __ZNSt3__14endlB8ue170006IcNS_11char_traitsIcEEEERNS_13basic_ostreamIT_T0_EES7_, symObjAddr: 0x280, symBinAddr: 0x100002B40, symSize: 0x58 }
  - { offsetInCU: 0x5B5D, offset: 0x5B5D, size: 0x8, addend: 0x0, symName: __ZNSt3__122__make_exception_guardB8ue170006INS_6vectorIxNS_9allocatorIxEEE16__destroy_vectorEEENS_28__exception_guard_exceptionsIT_EES7_, symObjAddr: 0x41C, symBinAddr: 0x100002CDC, symSize: 0x40 }
  - { offsetInCU: 0x5B92, offset: 0x5B92, size: 0x8, addend: 0x0, symName: __ZNSt3__119__allocate_at_leastB8ue170006INS_9allocatorIxEEEENS_19__allocation_resultINS_16allocator_traitsIT_E7pointerEEERS5_m, symObjAddr: 0x810, symBinAddr: 0x1000030D0, symSize: 0x40 }
  - { offsetInCU: 0x5BD5, offset: 0x5BD5, size: 0x8, addend: 0x0, symName: __ZNSt3__13minB8ue170006ImEERKT_S3_S3_, symObjAddr: 0x94C, symBinAddr: 0x10000320C, symSize: 0x2C }
  - { offsetInCU: 0x5E19, offset: 0x5E19, size: 0x8, addend: 0x0, symName: __ZNSt3__13minB8ue170006ImNS_6__lessIvvEEEERKT_S5_S5_T0_, symObjAddr: 0x9E4, symBinAddr: 0x1000032A4, symSize: 0x54 }
  - { offsetInCU: 0x5EB8, offset: 0x5EB8, size: 0x8, addend: 0x0, symName: __ZNSt3__120__throw_length_errorB8ue170006EPKc, symObjAddr: 0xAC0, symBinAddr: 0x100003380, symSize: 0x64 }
  - { offsetInCU: 0x5EE2, offset: 0x5EE2, size: 0x8, addend: 0x0, symName: __ZNSt3__117__libcpp_allocateB8ue170006Emm, symObjAddr: 0xC30, symBinAddr: 0x1000034F0, symSize: 0x28 }
  - { offsetInCU: 0x5F1F, offset: 0x5F1F, size: 0x8, addend: 0x0, symName: __ZNSt3__121__libcpp_operator_newB8ue170006IJmEEEPvDpT_, symObjAddr: 0xC58, symBinAddr: 0x100003518, symSize: 0x24 }
  - { offsetInCU: 0x5F58, offset: 0x5F58, size: 0x8, addend: 0x0, symName: __ZNSt3__112__to_addressB8ue170006IxEEPT_S2_, symObjAddr: 0xD74, symBinAddr: 0x100003634, symSize: 0x14 }
  - { offsetInCU: 0x5F8D, offset: 0x5F8D, size: 0x8, addend: 0x0, symName: __ZNSt3__119__libcpp_deallocateB8ue170006EPvmm, symObjAddr: 0x1238, symBinAddr: 0x100003AF8, symSize: 0x30 }
  - { offsetInCU: 0x5FD5, offset: 0x5FD5, size: 0x8, addend: 0x0, symName: __ZNSt3__127__do_deallocate_handle_sizeB8ue170006IJEEEvPvmDpT_, symObjAddr: 0x1268, symBinAddr: 0x100003B28, symSize: 0x28 }
  - { offsetInCU: 0x6013, offset: 0x6013, size: 0x8, addend: 0x0, symName: __ZNSt3__124__libcpp_operator_deleteB8ue170006IJPvEEEvDpT_, symObjAddr: 0x1290, symBinAddr: 0x100003B50, symSize: 0x24 }
  - { offsetInCU: 0x6048, offset: 0x6048, size: 0x8, addend: 0x0, symName: __ZNSt3__19use_facetB8ue170006INS_5ctypeIcEEEERKT_RKNS_6localeE, symObjAddr: 0x1378, symBinAddr: 0x100003C38, symSize: 0x2C }
  - { offsetInCU: 0x67EA, offset: 0x67EA, size: 0x8, addend: 0x0, symName: __ZSt28__throw_bad_array_new_lengthB8ue170006v, symObjAddr: 0xBFC, symBinAddr: 0x1000034BC, symSize: 0x34 }
  - { offsetInCU: 0x6ABF, offset: 0x6ABF, size: 0x8, addend: 0x0, symName: __Z3powB8ue170006IiiENSt3__19enable_ifIXaasr3std13is_arithmeticIT_EE5valuesr3std13is_arithmeticIT0_EE5valueENS0_9__promoteIS2_S3_vEEE4type4typeES2_S3_, symObjAddr: 0x1D4, symBinAddr: 0x100002A94, symSize: 0x44 }
  - { offsetInCU: 0x8EF3, offset: 0x8EF3, size: 0x8, addend: 0x0, symName: _main, symObjAddr: 0x0, symBinAddr: 0x1000028C0, symSize: 0x1D4 }
  - { offsetInCU: 0x8F89, offset: 0x8F89, size: 0x8, addend: 0x0, symName: __ZNSt3__16vectorIxNS_9allocatorIxEEEC1EmRKx, symObjAddr: 0x218, symBinAddr: 0x100002AD8, symSize: 0x3C }
  - { offsetInCU: 0x907F, offset: 0x907F, size: 0x8, addend: 0x0, symName: __ZNSt3__113basic_ostreamIcNS_11char_traitsIcEEElsB8ue170006EPFRS3_S4_E, symObjAddr: 0x254, symBinAddr: 0x100002B14, symSize: 0x2C }
  - { offsetInCU: 0x90B2, offset: 0x90B2, size: 0x8, addend: 0x0, symName: __ZNSt3__16vectorIxNS_9allocatorIxEEED1B8ue170006Ev, symObjAddr: 0x2D8, symBinAddr: 0x100002B98, symSize: 0x2C }
  - { offsetInCU: 0x90DA, offset: 0x90DA, size: 0x8, addend: 0x0, symName: __ZNSt3__16vectorIxNS_9allocatorIxEEEC2EmRKx, symObjAddr: 0x304, symBinAddr: 0x100002BC4, symSize: 0xDC }
  - { offsetInCU: 0x9143, offset: 0x9143, size: 0x8, addend: 0x0, symName: __ZNSt3__117__compressed_pairIPxNS_9allocatorIxEEEC1B8ue170006IDnNS_18__default_init_tagEEEOT_OT0_, symObjAddr: 0x3E0, symBinAddr: 0x100002CA0, symSize: 0x3C }
  - { offsetInCU: 0x919A, offset: 0x919A, size: 0x8, addend: 0x0, symName: __ZNSt3__16vectorIxNS_9allocatorIxEEE16__destroy_vectorC1B8ue170006ERS3_, symObjAddr: 0x45C, symBinAddr: 0x100002D1C, symSize: 0x34 }
  - { offsetInCU: 0x91D2, offset: 0x91D2, size: 0x8, addend: 0x0, symName: __ZNSt3__16vectorIxNS_9allocatorIxEEE11__vallocateB8ue170006Em, symObjAddr: 0x490, symBinAddr: 0x100002D50, symSize: 0xAC }
  - { offsetInCU: 0x9216, offset: 0x9216, size: 0x8, addend: 0x0, symName: __ZNSt3__16vectorIxNS_9allocatorIxEEE18__construct_at_endEmRKx, symObjAddr: 0x53C, symBinAddr: 0x100002DFC, symSize: 0xD0 }
  - { offsetInCU: 0x929A, offset: 0x929A, size: 0x8, addend: 0x0, symName: __ZNSt3__128__exception_guard_exceptionsINS_6vectorIxNS_9allocatorIxEEE16__destroy_vectorEE10__completeB8ue170006Ev, symObjAddr: 0x60C, symBinAddr: 0x100002ECC, symSize: 0x1C }
  - { offsetInCU: 0x92BF, offset: 0x92BF, size: 0x8, addend: 0x0, symName: __ZNSt3__128__exception_guard_exceptionsINS_6vectorIxNS_9allocatorIxEEE16__destroy_vectorEED1B8ue170006Ev, symObjAddr: 0x628, symBinAddr: 0x100002EE8, symSize: 0x2C }
  - { offsetInCU: 0x92E8, offset: 0x92E8, size: 0x8, addend: 0x0, symName: __ZNSt3__117__compressed_pairIPxNS_9allocatorIxEEEC2B8ue170006IDnNS_18__default_init_tagEEEOT_OT0_, symObjAddr: 0x654, symBinAddr: 0x100002F14, symSize: 0x40 }
  - { offsetInCU: 0x933F, offset: 0x933F, size: 0x8, addend: 0x0, symName: __ZNSt3__122__compressed_pair_elemIPxLi0ELb0EEC2B8ue170006IDnvEEOT_, symObjAddr: 0x694, symBinAddr: 0x100002F54, symSize: 0x1C }
  - { offsetInCU: 0x9380, offset: 0x9380, size: 0x8, addend: 0x0, symName: __ZNSt3__122__compressed_pair_elemINS_9allocatorIxEELi1ELb1EEC2B8ue170006ENS_18__default_init_tagE, symObjAddr: 0x6B0, symBinAddr: 0x100002F70, symSize: 0x2C }
  - { offsetInCU: 0x93B4, offset: 0x93B4, size: 0x8, addend: 0x0, symName: __ZNSt3__19allocatorIxEC2B8ue170006Ev, symObjAddr: 0x6DC, symBinAddr: 0x100002F9C, symSize: 0x2C }
  - { offsetInCU: 0x93DD, offset: 0x93DD, size: 0x8, addend: 0x0, symName: __ZNSt3__116__non_trivial_ifILb1ENS_9allocatorIxEEEC2B8ue170006Ev, symObjAddr: 0x708, symBinAddr: 0x100002FC8, symSize: 0x14 }
  - { offsetInCU: 0x9406, offset: 0x9406, size: 0x8, addend: 0x0, symName: __ZNSt3__128__exception_guard_exceptionsINS_6vectorIxNS_9allocatorIxEEE16__destroy_vectorEEC1B8ue170006ES5_, symObjAddr: 0x71C, symBinAddr: 0x100002FDC, symSize: 0x34 }
  - { offsetInCU: 0x943D, offset: 0x943D, size: 0x8, addend: 0x0, symName: __ZNSt3__128__exception_guard_exceptionsINS_6vectorIxNS_9allocatorIxEEE16__destroy_vectorEEC2B8ue170006ES5_, symObjAddr: 0x750, symBinAddr: 0x100003010, symSize: 0x24 }
  - { offsetInCU: 0x9474, offset: 0x9474, size: 0x8, addend: 0x0, symName: __ZNSt3__16vectorIxNS_9allocatorIxEEE16__destroy_vectorC2B8ue170006ERS3_, symObjAddr: 0x774, symBinAddr: 0x100003034, symSize: 0x20 }
  - { offsetInCU: 0x94AC, offset: 0x94AC, size: 0x8, addend: 0x0, symName: __ZNKSt3__16vectorIxNS_9allocatorIxEEE8max_sizeEv, symObjAddr: 0x794, symBinAddr: 0x100003054, symSize: 0x60 }
  - { offsetInCU: 0x94D3, offset: 0x94D3, size: 0x8, addend: 0x0, symName: __ZNKSt3__16vectorIxNS_9allocatorIxEEE20__throw_length_errorB8ue170006Ev, symObjAddr: 0x7F4, symBinAddr: 0x1000030B4, symSize: 0x1C }
  - { offsetInCU: 0x94F8, offset: 0x94F8, size: 0x8, addend: 0x0, symName: __ZNSt3__16vectorIxNS_9allocatorIxEEE7__allocB8ue170006Ev, symObjAddr: 0x850, symBinAddr: 0x100003110, symSize: 0x28 }
  - { offsetInCU: 0x951D, offset: 0x951D, size: 0x8, addend: 0x0, symName: __ZNSt3__16vectorIxNS_9allocatorIxEEE9__end_capB8ue170006Ev, symObjAddr: 0x878, symBinAddr: 0x100003138, symSize: 0x28 }
  - { offsetInCU: 0x9542, offset: 0x9542, size: 0x8, addend: 0x0, symName: __ZNKSt3__16vectorIxNS_9allocatorIxEEE14__annotate_newB8ue170006Em, symObjAddr: 0x8A0, symBinAddr: 0x100003160, symSize: 0xAC }
  - { offsetInCU: 0x9580, offset: 0x9580, size: 0x8, addend: 0x0, symName: __ZNSt3__116allocator_traitsINS_9allocatorIxEEE8max_sizeB8ue170006IS2_vEEmRKS2_, symObjAddr: 0x978, symBinAddr: 0x100003238, symSize: 0x24 }
  - { offsetInCU: 0x95AE, offset: 0x95AE, size: 0x8, addend: 0x0, symName: __ZNKSt3__16vectorIxNS_9allocatorIxEEE7__allocB8ue170006Ev, symObjAddr: 0x99C, symBinAddr: 0x10000325C, symSize: 0x28 }
  - { offsetInCU: 0x95D3, offset: 0x95D3, size: 0x8, addend: 0x0, symName: __ZNSt3__114numeric_limitsIlE3maxB8ue170006Ev, symObjAddr: 0x9C4, symBinAddr: 0x100003284, symSize: 0x14 }
  - { offsetInCU: 0x95FB, offset: 0x95FB, size: 0x8, addend: 0x0, symName: __ZNKSt3__16__lessIvvEclB8ue170006ImmEEbRKT_RKT0_, symObjAddr: 0xA38, symBinAddr: 0x1000032F8, symSize: 0x34 }
  - { offsetInCU: 0x964E, offset: 0x964E, size: 0x8, addend: 0x0, symName: __ZNKSt3__19allocatorIxE8max_sizeB8ue170006Ev, symObjAddr: 0xA6C, symBinAddr: 0x10000332C, symSize: 0x14 }
  - { offsetInCU: 0x9673, offset: 0x9673, size: 0x8, addend: 0x0, symName: __ZNKSt3__117__compressed_pairIPxNS_9allocatorIxEEE6secondB8ue170006Ev, symObjAddr: 0xA80, symBinAddr: 0x100003340, symSize: 0x24 }
  - { offsetInCU: 0x9698, offset: 0x9698, size: 0x8, addend: 0x0, symName: __ZNKSt3__122__compressed_pair_elemINS_9allocatorIxEELi1ELb1EE5__getB8ue170006Ev, symObjAddr: 0xAA4, symBinAddr: 0x100003364, symSize: 0x14 }
  - { offsetInCU: 0x96BD, offset: 0x96BD, size: 0x8, addend: 0x0, symName: __ZNSt3__123__libcpp_numeric_limitsIlLb1EE3maxB8ue170006Ev, symObjAddr: 0xAB8, symBinAddr: 0x100003378, symSize: 0x8 }
  - { offsetInCU: 0x96D1, offset: 0x96D1, size: 0x8, addend: 0x0, symName: __ZNSt12length_errorC1B8ue170006EPKc, symObjAddr: 0xB24, symBinAddr: 0x1000033E4, symSize: 0x34 }
  - { offsetInCU: 0x9708, offset: 0x9708, size: 0x8, addend: 0x0, symName: __ZNSt12length_errorC2B8ue170006EPKc, symObjAddr: 0xB58, symBinAddr: 0x100003418, symSize: 0x4C }
  - { offsetInCU: 0x973F, offset: 0x973F, size: 0x8, addend: 0x0, symName: __ZNSt3__19allocatorIxE8allocateB8ue170006Em, symObjAddr: 0xBA4, symBinAddr: 0x100003464, symSize: 0x58 }
  - { offsetInCU: 0x9772, offset: 0x9772, size: 0x8, addend: 0x0, symName: __ZNSt3__117__compressed_pairIPxNS_9allocatorIxEEE6secondB8ue170006Ev, symObjAddr: 0xC7C, symBinAddr: 0x10000353C, symSize: 0x24 }
  - { offsetInCU: 0x9797, offset: 0x9797, size: 0x8, addend: 0x0, symName: __ZNSt3__122__compressed_pair_elemINS_9allocatorIxEELi1ELb1EE5__getB8ue170006Ev, symObjAddr: 0xCA0, symBinAddr: 0x100003560, symSize: 0x14 }
  - { offsetInCU: 0x97BC, offset: 0x97BC, size: 0x8, addend: 0x0, symName: __ZNSt3__117__compressed_pairIPxNS_9allocatorIxEEE5firstB8ue170006Ev, symObjAddr: 0xCB4, symBinAddr: 0x100003574, symSize: 0x24 }
  - { offsetInCU: 0x97E1, offset: 0x97E1, size: 0x8, addend: 0x0, symName: __ZNSt3__122__compressed_pair_elemIPxLi0ELb0EE5__getB8ue170006Ev, symObjAddr: 0xCD8, symBinAddr: 0x100003598, symSize: 0x14 }
  - { offsetInCU: 0x9806, offset: 0x9806, size: 0x8, addend: 0x0, symName: __ZNKSt3__16vectorIxNS_9allocatorIxEEE31__annotate_contiguous_containerB8ue170006EPKvS5_S5_S5_, symObjAddr: 0xCEC, symBinAddr: 0x1000035AC, symSize: 0x20 }
  - { offsetInCU: 0x985B, offset: 0x985B, size: 0x8, addend: 0x0, symName: __ZNKSt3__16vectorIxNS_9allocatorIxEEE4dataB8ue170006Ev, symObjAddr: 0xD0C, symBinAddr: 0x1000035CC, symSize: 0x28 }
  - { offsetInCU: 0x9880, offset: 0x9880, size: 0x8, addend: 0x0, symName: __ZNKSt3__16vectorIxNS_9allocatorIxEEE8capacityB8ue170006Ev, symObjAddr: 0xD34, symBinAddr: 0x1000035F4, symSize: 0x40 }
  - { offsetInCU: 0x98A5, offset: 0x98A5, size: 0x8, addend: 0x0, symName: __ZNKSt3__16vectorIxNS_9allocatorIxEEE9__end_capB8ue170006Ev, symObjAddr: 0xD88, symBinAddr: 0x100003648, symSize: 0x28 }
  - { offsetInCU: 0x98CA, offset: 0x98CA, size: 0x8, addend: 0x0, symName: __ZNKSt3__117__compressed_pairIPxNS_9allocatorIxEEE5firstB8ue170006Ev, symObjAddr: 0xDB0, symBinAddr: 0x100003670, symSize: 0x24 }
  - { offsetInCU: 0x98EF, offset: 0x98EF, size: 0x8, addend: 0x0, symName: __ZNKSt3__122__compressed_pair_elemIPxLi0ELb0EE5__getB8ue170006Ev, symObjAddr: 0xDD4, symBinAddr: 0x100003694, symSize: 0x14 }
  - { offsetInCU: 0x992D, offset: 0x992D, size: 0x8, addend: 0x0, symName: __ZNSt3__16vectorIxNS_9allocatorIxEEE21_ConstructTransactionC1B8ue170006ERS3_m, symObjAddr: 0xDE8, symBinAddr: 0x1000036A8, symSize: 0x3C }
  - { offsetInCU: 0x9974, offset: 0x9974, size: 0x8, addend: 0x0, symName: __ZNSt3__116allocator_traitsINS_9allocatorIxEEE9constructB8ue170006IxJRKxEvEEvRS2_PT_DpOT0_, symObjAddr: 0xE24, symBinAddr: 0x1000036E4, symSize: 0x34 }
  - { offsetInCU: 0x99CB, offset: 0x99CB, size: 0x8, addend: 0x0, symName: __ZNSt3__16vectorIxNS_9allocatorIxEEE21_ConstructTransactionD1B8ue170006Ev, symObjAddr: 0xE58, symBinAddr: 0x100003718, symSize: 0x2C }
  - { offsetInCU: 0x99F4, offset: 0x99F4, size: 0x8, addend: 0x0, symName: __ZNSt3__16vectorIxNS_9allocatorIxEEE21_ConstructTransactionC2B8ue170006ERS3_m, symObjAddr: 0xE84, symBinAddr: 0x100003744, symSize: 0x44 }
  - { offsetInCU: 0x9A3B, offset: 0x9A3B, size: 0x8, addend: 0x0, symName: __ZNSt3__19allocatorIxE9constructB8ue170006IxJRKxEEEvPT_DpOT0_, symObjAddr: 0xEC8, symBinAddr: 0x100003788, symSize: 0x28 }
  - { offsetInCU: 0x9A90, offset: 0x9A90, size: 0x8, addend: 0x0, symName: __ZNSt3__16vectorIxNS_9allocatorIxEEE21_ConstructTransactionD2B8ue170006Ev, symObjAddr: 0xEF0, symBinAddr: 0x1000037B0, symSize: 0x20 }
  - { offsetInCU: 0x9AB9, offset: 0x9AB9, size: 0x8, addend: 0x0, symName: __ZNSt3__128__exception_guard_exceptionsINS_6vectorIxNS_9allocatorIxEEE16__destroy_vectorEED2B8ue170006Ev, symObjAddr: 0xF10, symBinAddr: 0x1000037D0, symSize: 0x50 }
  - { offsetInCU: 0x9AE2, offset: 0x9AE2, size: 0x8, addend: 0x0, symName: __ZNSt3__16vectorIxNS_9allocatorIxEEE16__destroy_vectorclB8ue170006Ev, symObjAddr: 0xF60, symBinAddr: 0x100003820, symSize: 0x90 }
  - { offsetInCU: 0x9B07, offset: 0x9B07, size: 0x8, addend: 0x0, symName: __ZNSt3__16vectorIxNS_9allocatorIxEEE7__clearB8ue170006Ev, symObjAddr: 0xFF0, symBinAddr: 0x1000038B0, symSize: 0x28 }
  - { offsetInCU: 0x9B2C, offset: 0x9B2C, size: 0x8, addend: 0x0, symName: __ZNKSt3__16vectorIxNS_9allocatorIxEEE17__annotate_deleteB8ue170006Ev, symObjAddr: 0x1018, symBinAddr: 0x1000038D8, symSize: 0xB8 }
  - { offsetInCU: 0x9B51, offset: 0x9B51, size: 0x8, addend: 0x0, symName: __ZNSt3__116allocator_traitsINS_9allocatorIxEEE10deallocateB8ue170006ERS2_Pxm, symObjAddr: 0x10D0, symBinAddr: 0x100003990, symSize: 0x34 }
  - { offsetInCU: 0x9B93, offset: 0x9B93, size: 0x8, addend: 0x0, symName: __ZNSt3__16vectorIxNS_9allocatorIxEEE22__base_destruct_at_endB8ue170006EPx, symObjAddr: 0x1104, symBinAddr: 0x1000039C4, symSize: 0x8C }
  - { offsetInCU: 0x9BD7, offset: 0x9BD7, size: 0x8, addend: 0x0, symName: __ZNSt3__116allocator_traitsINS_9allocatorIxEEE7destroyB8ue170006IxvEEvRS2_PT_, symObjAddr: 0x1190, symBinAddr: 0x100003A50, symSize: 0x2C }
  - { offsetInCU: 0x9C14, offset: 0x9C14, size: 0x8, addend: 0x0, symName: __ZNSt3__19allocatorIxE7destroyB8ue170006EPx, symObjAddr: 0x11BC, symBinAddr: 0x100003A7C, symSize: 0x14 }
  - { offsetInCU: 0x9C47, offset: 0x9C47, size: 0x8, addend: 0x0, symName: __ZNKSt3__16vectorIxNS_9allocatorIxEEE4sizeB8ue170006Ev, symObjAddr: 0x11D0, symBinAddr: 0x100003A90, symSize: 0x28 }
  - { offsetInCU: 0x9C6C, offset: 0x9C6C, size: 0x8, addend: 0x0, symName: __ZNSt3__19allocatorIxE10deallocateB8ue170006EPxm, symObjAddr: 0x11F8, symBinAddr: 0x100003AB8, symSize: 0x40 }
  - { offsetInCU: 0x9CAD, offset: 0x9CAD, size: 0x8, addend: 0x0, symName: __ZNSt3__16vectorIxNS_9allocatorIxEEED2B8ue170006Ev, symObjAddr: 0x12B4, symBinAddr: 0x100003B74, symSize: 0x40 }
  - { offsetInCU: 0x9CD6, offset: 0x9CD6, size: 0x8, addend: 0x0, symName: __ZNKSt3__19basic_iosIcNS_11char_traitsIcEEE5widenB8ue170006Ec, symObjAddr: 0x12F4, symBinAddr: 0x100003BB4, symSize: 0x84 }
  - { offsetInCU: 0x9D43, offset: 0x9D43, size: 0x8, addend: 0x0, symName: __ZNKSt3__15ctypeIcE5widenB8ue170006Ec, symObjAddr: 0x13A4, symBinAddr: 0x100003C64, symSize: 0x38 }
...
