---
triple:          'arm64-apple-darwin'
binary-path:     '/Users/sajidhasan/VSCODE/3sum'
relocations:
  - { offsetInCU: 0x6B48, offset: 0x6B48, size: 0x8, addend: 0x0, symName: __ZNSt3__124__put_character_sequenceB8ue170006IcNS_11char_traitsIcEEEERNS_13basic_ostreamIT_T0_EES7_PKS4_m, symObjAddr: 0x5BA4, symBinAddr: 0x100006B8C, symSize: 0x1EC }
  - { offsetInCU: 0x86BA, offset: 0x86BA, size: 0x8, addend: 0x0, symName: __ZNSt3__1neB8ue170006IPNS_6vectorIiNS_9allocatorIiEEEEEEbRKNS_11__wrap_iterIT_EESA_, symObjAddr: 0x87C, symBinAddr: 0x100001864, symSize: 0x34 }
  - { offsetInCU: 0x86FD, offset: 0x86FD, size: 0x8, addend: 0x0, symName: __ZNSt3__1lsB8ue170006INS_11char_traitsIcEEEERNS_13basic_ostreamIcT_EES6_c, symObjAddr: 0x8FC, symBinAddr: 0x1000018E4, symSize: 0x34 }
  - { offsetInCU: 0x8743, offset: 0x8743, size: 0x8, addend: 0x0, symName: __ZNSt3__1neB8ue170006IPiEEbRKNS_11__wrap_iterIT_EES6_, symObjAddr: 0x990, symBinAddr: 0x100001978, symSize: 0x34 }
  - { offsetInCU: 0x8786, offset: 0x8786, size: 0x8, addend: 0x0, symName: __ZNSt3__14endlB8ue170006IcNS_11char_traitsIcEEEERNS_13basic_ostreamIT_T0_EES7_, symObjAddr: 0xA28, symBinAddr: 0x100001A10, symSize: 0x58 }
  - { offsetInCU: 0x87C6, offset: 0x87C6, size: 0x8, addend: 0x0, symName: __ZNSt3__14sortB8ue170006INS_11__wrap_iterIPiEEEEvT_S4_, symObjAddr: 0xB24, symBinAddr: 0x100001B0C, symSize: 0x3C }
  - { offsetInCU: 0x8808, offset: 0x8808, size: 0x8, addend: 0x0, symName: __ZNSt3__14findB8ue170006INS_11__wrap_iterIPiEEiEET_S4_S4_RKT0_, symObjAddr: 0xC8C, symBinAddr: 0x100001C74, symSize: 0x78 }
  - { offsetInCU: 0x888C, offset: 0x888C, size: 0x8, addend: 0x0, symName: __ZNSt3__14sortB8ue170006INS_11__wrap_iterIPiEENS_6__lessIvvEEEEvT_S6_T0_, symObjAddr: 0xF30, symBinAddr: 0x100001F18, symSize: 0x40 }
  - { offsetInCU: 0x88E6, offset: 0x88E6, size: 0x8, addend: 0x0, symName: __ZNSt3__111__sort_implB8ue170006INS_17_ClassicAlgPolicyENS_11__wrap_iterIPiEENS_6__lessIvvEEEEvT0_S7_RT1_, symObjAddr: 0xF70, symBinAddr: 0x100001F58, symSize: 0xA8 }
  - { offsetInCU: 0x8949, offset: 0x8949, size: 0x8, addend: 0x0, symName: __ZNSt3__123__debug_randomize_rangeB8ue170006INS_17_ClassicAlgPolicyENS_11__wrap_iterIPiEES4_EEvT0_T1_, symObjAddr: 0x1018, symBinAddr: 0x100002000, symSize: 0x14 }
  - { offsetInCU: 0x899A, offset: 0x899A, size: 0x8, addend: 0x0, symName: __ZNSt3__115__sort_dispatchB8ue170006INS_17_ClassicAlgPolicyEiLi0EEEvPT0_S3_RNS_6__lessIvvEE, symObjAddr: 0x102C, symBinAddr: 0x100002014, symSize: 0x34 }
  - { offsetInCU: 0x8A05, offset: 0x8A05, size: 0x8, addend: 0x0, symName: __ZNSt3__113__unwrap_iterB8ue170006INS_11__wrap_iterIPiEENS_18__unwrap_iter_implIS3_Lb1EEELi0EEEDTclsrT0_8__unwrapclsr3stdE7declvalIT_EEEES7_, symObjAddr: 0x1060, symBinAddr: 0x100002048, symSize: 0x2C }
  - { offsetInCU: 0x8A49, offset: 0x8A49, size: 0x8, addend: 0x0, symName: __ZNSt3__135__check_strict_weak_ordering_sortedB8ue170006IPiNS_6__lessIvvEEEEvT_S4_RT0_, symObjAddr: 0x108C, symBinAddr: 0x100002074, symSize: 0x18 }
  - { offsetInCU: 0x8AF2, offset: 0x8AF2, size: 0x8, addend: 0x0, symName: __ZNSt3__112__to_addressB8ue170006INS_11__wrap_iterIPiEEvEEu7__decayIDTclsr19__to_address_helperIT_EE6__callclsr3stdE7declvalIRKS4_EEEEES6_, symObjAddr: 0x10CC, symBinAddr: 0x1000020B4, symSize: 0x24 }
  - { offsetInCU: 0x8BCD, offset: 0x8BCD, size: 0x8, addend: 0x0, symName: __ZNSt3__112__to_addressB8ue170006IiEEPT_S2_, symObjAddr: 0x114C, symBinAddr: 0x100002134, symSize: 0x14 }
  - { offsetInCU: 0x8C02, offset: 0x8C02, size: 0x8, addend: 0x0, symName: __ZNSt3__13maxB8ue170006ImEERKT_S3_S3_, symObjAddr: 0x1908, symBinAddr: 0x1000028F0, symSize: 0x2C }
  - { offsetInCU: 0x8C45, offset: 0x8C45, size: 0x8, addend: 0x0, symName: __ZNSt3__13minB8ue170006ImEERKT_S3_S3_, symObjAddr: 0x1934, symBinAddr: 0x10000291C, symSize: 0x2C }
  - { offsetInCU: 0x8E89, offset: 0x8E89, size: 0x8, addend: 0x0, symName: __ZNSt3__13minB8ue170006ImNS_6__lessIvvEEEERKT_S5_S5_T0_, symObjAddr: 0x19C0, symBinAddr: 0x1000029A8, symSize: 0x54 }
  - { offsetInCU: 0x8F28, offset: 0x8F28, size: 0x8, addend: 0x0, symName: __ZNSt3__120__throw_length_errorB8ue170006EPKc, symObjAddr: 0x1A9C, symBinAddr: 0x100002A84, symSize: 0x64 }
  - { offsetInCU: 0x8F52, offset: 0x8F52, size: 0x8, addend: 0x0, symName: __ZNSt3__13maxB8ue170006ImNS_6__lessIvvEEEERKT_S5_S5_T0_, symObjAddr: 0x1BE0, symBinAddr: 0x100002BC8, symSize: 0x54 }
  - { offsetInCU: 0x8FAC, offset: 0x8FAC, size: 0x8, addend: 0x0, symName: __ZNSt3__119__allocate_at_leastB8ue170006INS_9allocatorIiEEEENS_19__allocation_resultINS_16allocator_traitsIT_E7pointerEEERS5_m, symObjAddr: 0x1D44, symBinAddr: 0x100002D2C, symSize: 0x40 }
  - { offsetInCU: 0x8FEF, offset: 0x8FEF, size: 0x8, addend: 0x0, symName: __ZNSt3__117__libcpp_allocateB8ue170006Emm, symObjAddr: 0x1EC8, symBinAddr: 0x100002EB0, symSize: 0x28 }
  - { offsetInCU: 0x902C, offset: 0x902C, size: 0x8, addend: 0x0, symName: __ZNSt3__121__libcpp_operator_newB8ue170006IJmEEEPvDpT_, symObjAddr: 0x1EF0, symBinAddr: 0x100002ED8, symSize: 0x24 }
  - { offsetInCU: 0x9065, offset: 0x9065, size: 0x8, addend: 0x0, symName: __ZNSt3__142__uninitialized_allocator_move_if_noexceptB8ue170006INS_9allocatorIiEENS_16reverse_iteratorIPiEES5_ivEET1_RT_T0_S9_S6_, symObjAddr: 0x2030, symBinAddr: 0x100003018, symSize: 0x78 }
  - { offsetInCU: 0x90E2, offset: 0x90E2, size: 0x8, addend: 0x0, symName: __ZNSt3__14swapB8ue170006IPiEENS_9enable_ifIXaasr21is_move_constructibleIT_EE5valuesr18is_move_assignableIS3_EE5valueEvE4typeERS3_S6_, symObjAddr: 0x20F4, symBinAddr: 0x1000030DC, symSize: 0x3C }
  - { offsetInCU: 0x9133, offset: 0x9133, size: 0x8, addend: 0x0, symName: __ZNSt3__14moveB8ue170006INS_16reverse_iteratorIPiEES3_EET0_T_S5_S4_, symObjAddr: 0x2224, symBinAddr: 0x10000320C, symSize: 0x78 }
  - { offsetInCU: 0x918D, offset: 0x918D, size: 0x8, addend: 0x0, symName: __ZNSt3__16__moveB8ue170006INS_17_ClassicAlgPolicyENS_16reverse_iteratorIPiEES4_S4_EENS_4pairIT0_T2_EES6_T1_S7_, symObjAddr: 0x229C, symBinAddr: 0x100003284, symSize: 0x64 }
  - { offsetInCU: 0x91F9, offset: 0x91F9, size: 0x8, addend: 0x0, symName: __ZNSt3__123__dispatch_copy_or_moveB8ue170006INS_17_ClassicAlgPolicyENS_11__move_loopIS1_EENS_14__move_trivialENS_16reverse_iteratorIPiEES7_S7_EENS_4pairIT2_T4_EES9_T3_SA_, symObjAddr: 0x2300, symBinAddr: 0x1000032E8, symSize: 0x64 }
  - { offsetInCU: 0x9277, offset: 0x9277, size: 0x8, addend: 0x0, symName: __ZNSt3__121__unwrap_and_dispatchB8ue170006INS_10__overloadINS_11__move_loopINS_17_ClassicAlgPolicyEEENS_14__move_trivialEEENS_16reverse_iteratorIPiEES9_S9_Li0EEENS_4pairIT0_T2_EESB_T1_SC_, symObjAddr: 0x2364, symBinAddr: 0x10000334C, symSize: 0x12C }
  - { offsetInCU: 0x9307, offset: 0x9307, size: 0x8, addend: 0x0, symName: __ZNSt3__114__unwrap_rangeB8ue170006INS_16reverse_iteratorIPiEES3_EENS_4pairIT0_S5_EET_S7_, symObjAddr: 0x2490, symBinAddr: 0x100003478, symSize: 0x84 }
  - { offsetInCU: 0x9482, offset: 0x9482, size: 0x8, addend: 0x0, symName: __ZNSt3__113__unwrap_iterB8ue170006INS_16reverse_iteratorIPiEENS_18__unwrap_iter_implIS3_Lb0EEELi0EEEDTclsrT0_8__unwrapclsr3stdE7declvalIT_EEEES7_, symObjAddr: 0x25B4, symBinAddr: 0x10000359C, symSize: 0x44 }
  - { offsetInCU: 0x94C6, offset: 0x94C6, size: 0x8, addend: 0x0, symName: __ZNSt3__19make_pairB8ue170006INS_16reverse_iteratorIPiEES3_EENS_4pairINS_18__unwrap_ref_decayIT_E4typeENS5_IT0_E4typeEEEOS6_OS9_, symObjAddr: 0x25F8, symBinAddr: 0x1000035E0, symSize: 0x38 }
  - { offsetInCU: 0x9515, offset: 0x9515, size: 0x8, addend: 0x0, symName: __ZNSt3__114__rewrap_rangeB8ue170006INS_16reverse_iteratorIPiEES3_EET_S4_T0_, symObjAddr: 0x2630, symBinAddr: 0x100003618, symSize: 0x5C }
  - { offsetInCU: 0x9561, offset: 0x9561, size: 0x8, addend: 0x0, symName: __ZNSt3__113__rewrap_iterB8ue170006INS_16reverse_iteratorIPiEES3_NS_18__unwrap_iter_implIS3_Lb0EEEEET_S6_T0_, symObjAddr: 0x268C, symBinAddr: 0x100003674, symSize: 0x74 }
  - { offsetInCU: 0x95B6, offset: 0x95B6, size: 0x8, addend: 0x0, symName: __ZNSt3__1neB8ue170006IPiS1_EEbRKNS_16reverse_iteratorIT_EERKNS2_IT0_EE, symObjAddr: 0x2700, symBinAddr: 0x1000036E8, symSize: 0x48 }
  - { offsetInCU: 0x96B4, offset: 0x96B4, size: 0x8, addend: 0x0, symName: __ZNSt3__119__libcpp_deallocateB8ue170006EPvmm, symObjAddr: 0x2AF8, symBinAddr: 0x100003AE0, symSize: 0x30 }
  - { offsetInCU: 0x96FC, offset: 0x96FC, size: 0x8, addend: 0x0, symName: __ZNSt3__127__do_deallocate_handle_sizeB8ue170006IJEEEvPvmDpT_, symObjAddr: 0x2B28, symBinAddr: 0x100003B10, symSize: 0x28 }
  - { offsetInCU: 0x973A, offset: 0x973A, size: 0x8, addend: 0x0, symName: __ZNSt3__124__libcpp_operator_deleteB8ue170006IJPvEEEvDpT_, symObjAddr: 0x2B50, symBinAddr: 0x100003B38, symSize: 0x24 }
  - { offsetInCU: 0x976F, offset: 0x976F, size: 0x8, addend: 0x0, symName: __ZNSt3__112__to_addressB8ue170006INS_6vectorIiNS_9allocatorIiEEEEEEPT_S6_, symObjAddr: 0x2E20, symBinAddr: 0x100003E08, symSize: 0x14 }
  - { offsetInCU: 0x97A4, offset: 0x97A4, size: 0x8, addend: 0x0, symName: __ZNSt3__119__allocate_at_leastB8ue170006INS_9allocatorINS_6vectorIiNS1_IiEEEEEEEENS_19__allocation_resultINS_16allocator_traitsIT_E7pointerEEERS8_m, symObjAddr: 0x3464, symBinAddr: 0x10000444C, symSize: 0x40 }
  - { offsetInCU: 0x97E7, offset: 0x97E7, size: 0x8, addend: 0x0, symName: __ZNSt3__142__uninitialized_allocator_move_if_noexceptB8ue170006INS_9allocatorINS_6vectorIiNS1_IiEEEEEENS_16reverse_iteratorIPS4_EES8_S8_EET2_RT_T0_T1_S9_, symObjAddr: 0x36F0, symBinAddr: 0x1000046D8, symSize: 0x12C }
  - { offsetInCU: 0x9887, offset: 0x9887, size: 0x8, addend: 0x0, symName: __ZNSt3__14swapB8ue170006IPNS_6vectorIiNS_9allocatorIiEEEEEENS_9enable_ifIXaasr21is_move_constructibleIT_EE5valuesr18is_move_assignableIS7_EE5valueEvE4typeERS7_SA_, symObjAddr: 0x3868, symBinAddr: 0x100004850, symSize: 0x3C }
  - { offsetInCU: 0x98D8, offset: 0x98D8, size: 0x8, addend: 0x0, symName: __ZNSt3__122__make_exception_guardB8ue170006INS_29_AllocatorDestroyRangeReverseINS_9allocatorINS_6vectorIiNS2_IiEEEEEENS_16reverse_iteratorIPS5_EEEEEENS_28__exception_guard_exceptionsIT_EESC_, symObjAddr: 0x39B4, symBinAddr: 0x10000499C, symSize: 0x4C }
  - { offsetInCU: 0x990E, offset: 0x990E, size: 0x8, addend: 0x0, symName: __ZNSt3__1neB8ue170006IPNS_6vectorIiNS_9allocatorIiEEEES5_EEbRKNS_16reverse_iteratorIT_EERKNS6_IT0_EE, symObjAddr: 0x3A44, symBinAddr: 0x100004A2C, symSize: 0x48 }
  - { offsetInCU: 0x995A, offset: 0x995A, size: 0x8, addend: 0x0, symName: __ZNSt3__112__to_addressB8ue170006INS_16reverse_iteratorIPNS_6vectorIiNS_9allocatorIiEEEEEEvEEu7__decayIDTclsr19__to_address_helperIT_EE6__callclsr3stdE7declvalIRKS8_EEEEESA_, symObjAddr: 0x3AC0, symBinAddr: 0x100004AA8, symSize: 0x24 }
  - { offsetInCU: 0x99B9, offset: 0x99B9, size: 0x8, addend: 0x0, symName: __ZNSt3__119__allocator_destroyB8ue170006INS_9allocatorINS_6vectorIiNS1_IiEEEEEENS_16reverse_iteratorINS6_IPS4_EEEES9_EEvRT_T0_T1_, symObjAddr: 0x3F30, symBinAddr: 0x100004F18, symSize: 0x70 }
  - { offsetInCU: 0x9A1E, offset: 0x9A1E, size: 0x8, addend: 0x0, symName: __ZNSt3__1neB8ue170006INS_16reverse_iteratorIPNS_6vectorIiNS_9allocatorIiEEEEEES7_EEbRKNS1_IT_EERKNS1_IT0_EE, symObjAddr: 0x3FDC, symBinAddr: 0x100004FC4, symSize: 0x60 }
  - { offsetInCU: 0x9A6A, offset: 0x9A6A, size: 0x8, addend: 0x0, symName: __ZNSt3__112__to_addressB8ue170006INS_16reverse_iteratorINS1_IPNS_6vectorIiNS_9allocatorIiEEEEEEEEvEEu7__decayIDTclsr19__to_address_helperIT_EE6__callclsr3stdE7declvalIRKS9_EEEEESB_, symObjAddr: 0x4068, symBinAddr: 0x100005050, symSize: 0x24 }
  - { offsetInCU: 0x9AC9, offset: 0x9AC9, size: 0x8, addend: 0x0, symName: __ZNSt3__113__rewrap_iterB8ue170006INS_11__wrap_iterIPiEES2_NS_18__unwrap_iter_implIS3_Lb1EEEEET_S6_T0_, symObjAddr: 0x4470, symBinAddr: 0x100005458, symSize: 0x4C }
  - { offsetInCU: 0x9B1E, offset: 0x9B1E, size: 0x8, addend: 0x0, symName: __ZNSt3__111__find_implB8ue170006IPiS1_iNS_10__identityEEET_S3_T0_RKT1_RT2_, symObjAddr: 0x44BC, symBinAddr: 0x1000054A4, symSize: 0x88 }
  - { offsetInCU: 0x9B98, offset: 0x9B98, size: 0x8, addend: 0x0, symName: __ZNSt3__18__invokeB8ue170006IRNS_10__identityEJRiEEEDTclclsr3stdE7declvalIT_EEspclsr3stdE7declvalIT0_EEEEOS4_DpOS5_, symObjAddr: 0x4604, symBinAddr: 0x1000055EC, symSize: 0x2C }
  - { offsetInCU: 0x9C16, offset: 0x9C16, size: 0x8, addend: 0x0, symName: __ZNSt3__1miB8ue170006IPKiS2_EEDTmicldtfp_4baseEcldtfp0_4baseEERKNS_11__wrap_iterIT_EERKNS4_IT0_EE, symObjAddr: 0x4648, symBinAddr: 0x100005630, symSize: 0x48 }
  - { offsetInCU: 0x9C62, offset: 0x9C62, size: 0x8, addend: 0x0, symName: __ZNSt3__14moveB8ue170006IPiS1_EET0_T_S3_S2_, symObjAddr: 0x4708, symBinAddr: 0x1000056F0, symSize: 0x40 }
  - { offsetInCU: 0x9CBC, offset: 0x9CBC, size: 0x8, addend: 0x0, symName: __ZNSt3__16__moveB8ue170006INS_17_ClassicAlgPolicyEPiS2_S2_EENS_4pairIT0_T2_EES4_T1_S5_, symObjAddr: 0x4984, symBinAddr: 0x10000596C, symSize: 0x44 }
  - { offsetInCU: 0x9D28, offset: 0x9D28, size: 0x8, addend: 0x0, symName: __ZNSt3__123__dispatch_copy_or_moveB8ue170006INS_17_ClassicAlgPolicyENS_11__move_loopIS1_EENS_14__move_trivialEPiS5_S5_EENS_4pairIT2_T4_EES7_T3_S8_, symObjAddr: 0x49C8, symBinAddr: 0x1000059B0, symSize: 0x44 }
  - { offsetInCU: 0x9DA6, offset: 0x9DA6, size: 0x8, addend: 0x0, symName: __ZNSt3__121__unwrap_and_dispatchB8ue170006INS_10__overloadINS_11__move_loopINS_17_ClassicAlgPolicyEEENS_14__move_trivialEEEPiS7_S7_Li0EEENS_4pairIT0_T2_EES9_T1_SA_, symObjAddr: 0x4A0C, symBinAddr: 0x1000059F4, symSize: 0xB4 }
  - { offsetInCU: 0x9E34, offset: 0x9E34, size: 0x8, addend: 0x0, symName: __ZNSt3__114__unwrap_rangeB8ue170006IPiS1_EENS_4pairIT0_S3_EET_S5_, symObjAddr: 0x4AC0, symBinAddr: 0x100005AA8, symSize: 0x60 }
  - { offsetInCU: 0x9FC9, offset: 0x9FC9, size: 0x8, addend: 0x0, symName: __ZNSt3__113__unwrap_iterB8ue170006IPiNS_18__unwrap_iter_implIS1_Lb1EEELi0EEEDTclsrT0_8__unwrapclsr3stdE7declvalIT_EEEES5_, symObjAddr: 0x4B68, symBinAddr: 0x100005B50, symSize: 0x24 }
  - { offsetInCU: 0xA00D, offset: 0xA00D, size: 0x8, addend: 0x0, symName: __ZNSt3__19make_pairB8ue170006IPiS1_EENS_4pairINS_18__unwrap_ref_decayIT_E4typeENS3_IT0_E4typeEEEOS4_OS7_, symObjAddr: 0x4B8C, symBinAddr: 0x100005B74, symSize: 0x38 }
  - { offsetInCU: 0xA05C, offset: 0xA05C, size: 0x8, addend: 0x0, symName: __ZNSt3__114__rewrap_rangeB8ue170006IPiS1_EET_S2_T0_, symObjAddr: 0x4BC4, symBinAddr: 0x100005BAC, symSize: 0x2C }
  - { offsetInCU: 0xA0A8, offset: 0xA0A8, size: 0x8, addend: 0x0, symName: __ZNSt3__113__rewrap_iterB8ue170006IPiS1_NS_18__unwrap_iter_implIS1_Lb1EEEEET_S4_T0_, symObjAddr: 0x4BF0, symBinAddr: 0x100005BD8, symSize: 0x3C }
  - { offsetInCU: 0xA0FD, offset: 0xA0FD, size: 0x8, addend: 0x0, symName: __ZNSt3__119__copy_trivial_implB8ue170006IiiEENS_4pairIPT_PT0_EES3_S3_S5_, symObjAddr: 0x4C2C, symBinAddr: 0x100005C14, symSize: 0x80 }
  - { offsetInCU: 0xA165, offset: 0xA165, size: 0x8, addend: 0x0, symName: __ZNSt3__119__constexpr_memmoveB8ue170006IiiLi0EEEPT_S2_PT0_NS_15__element_countE, symObjAddr: 0x4CAC, symBinAddr: 0x100005C94, symSize: 0x64 }
  - { offsetInCU: 0xA1D3, offset: 0xA1D3, size: 0x8, addend: 0x0, symName: __ZNSt3__19make_pairB8ue170006IRPiS1_EENS_4pairINS_18__unwrap_ref_decayIT_E4typeENS4_IT0_E4typeEEEOS5_OS8_, symObjAddr: 0x4D10, symBinAddr: 0x100005CF8, symSize: 0x38 }
  - { offsetInCU: 0xA275, offset: 0xA275, size: 0x8, addend: 0x0, symName: __ZNSt3__1eqB8ue170006IPNS_6vectorIiNS_9allocatorIiEEEEEEbRKNS_11__wrap_iterIT_EESA_, symObjAddr: 0x4F30, symBinAddr: 0x100005F18, symSize: 0x48 }
  - { offsetInCU: 0xA2B8, offset: 0xA2B8, size: 0x8, addend: 0x0, symName: __ZNSt3__1eqB8ue170006IPiEEbRKNS_11__wrap_iterIT_EES6_, symObjAddr: 0x4F90, symBinAddr: 0x100005F78, symSize: 0x48 }
  - { offsetInCU: 0xA2FB, offset: 0xA2FB, size: 0x8, addend: 0x0, symName: __ZNSt3__122__make_exception_guardB8ue170006INS_6vectorIiNS_9allocatorIiEEE16__destroy_vectorEEENS_28__exception_guard_exceptionsIT_EES7_, symObjAddr: 0x53D8, symBinAddr: 0x1000063C0, symSize: 0x40 }
  - { offsetInCU: 0xA330, offset: 0xA330, size: 0x8, addend: 0x0, symName: __ZNSt3__130__uninitialized_allocator_copyB8ue170006INS_9allocatorIiEEPiS3_S3_EET2_RT_T0_T1_S4_, symObjAddr: 0x5928, symBinAddr: 0x100006910, symSize: 0x80 }
  - { offsetInCU: 0xA3CD, offset: 0xA3CD, size: 0x8, addend: 0x0, symName: __ZNSt3__135__uninitialized_allocator_copy_implB8ue170006INS_9allocatorIiEEiiiLPv0EEEPT2_RT_PT0_S9_S5_, symObjAddr: 0x59A8, symBinAddr: 0x100006990, symSize: 0x38 }
  - { offsetInCU: 0xA44E, offset: 0xA44E, size: 0x8, addend: 0x0, symName: __ZNSt3__14copyB8ue170006IPiS1_EET0_T_S3_S2_, symObjAddr: 0x59E0, symBinAddr: 0x1000069C8, symSize: 0x40 }
  - { offsetInCU: 0xA4A8, offset: 0xA4A8, size: 0x8, addend: 0x0, symName: __ZNSt3__16__copyB8ue170006INS_17_ClassicAlgPolicyEPiS2_S2_EENS_4pairIT0_T2_EES4_T1_S5_, symObjAddr: 0x5A20, symBinAddr: 0x100006A08, symSize: 0x44 }
  - { offsetInCU: 0xA514, offset: 0xA514, size: 0x8, addend: 0x0, symName: __ZNSt3__123__dispatch_copy_or_moveB8ue170006INS_17_ClassicAlgPolicyENS_11__copy_loopIS1_EENS_14__copy_trivialEPiS5_S5_EENS_4pairIT2_T4_EES7_T3_S8_, symObjAddr: 0x5A64, symBinAddr: 0x100006A4C, symSize: 0x44 }
  - { offsetInCU: 0xA592, offset: 0xA592, size: 0x8, addend: 0x0, symName: __ZNSt3__121__unwrap_and_dispatchB8ue170006INS_10__overloadINS_11__copy_loopINS_17_ClassicAlgPolicyEEENS_14__copy_trivialEEEPiS7_S7_Li0EEENS_4pairIT0_T2_EES9_T1_SA_, symObjAddr: 0x5AA8, symBinAddr: 0x100006A90, symSize: 0xB4 }
  - { offsetInCU: 0xA666, offset: 0xA666, size: 0x8, addend: 0x0, symName: __ZNSt3__116__pad_and_outputB8ue170006IcNS_11char_traitsIcEEEENS_19ostreambuf_iteratorIT_T0_EES6_PKS4_S8_S8_RNS_8ios_baseES4_, symObjAddr: 0x5DAC, symBinAddr: 0x100006D94, symSize: 0x240 }
  - { offsetInCU: 0xA735, offset: 0xA735, size: 0x8, addend: 0x0, symName: __ZNSt3__112__to_addressB8ue170006IKcEEPT_S3_, symObjAddr: 0x6314, symBinAddr: 0x1000072FC, symSize: 0x14 }
  - { offsetInCU: 0xA79D, offset: 0xA79D, size: 0x8, addend: 0x0, symName: __ZNSt3__19use_facetB8ue170006INS_5ctypeIcEEEERKT_RKNS_6localeE, symObjAddr: 0x6594, symBinAddr: 0x10000757C, symSize: 0x2C }
  - { offsetInCU: 0xB086, offset: 0xB086, size: 0x8, addend: 0x0, symName: __ZSt28__throw_bad_array_new_lengthB8ue170006v, symObjAddr: 0x1E94, symBinAddr: 0x100002E7C, symSize: 0x34 }
  - { offsetInCU: 0xB54F, offset: 0xB54F, size: 0x8, addend: 0x0, symName: __ZNSt3__16vectorIiNS_9allocatorIiEEE26__swap_out_circular_bufferERNS_14__split_bufferIiRS2_EE, symObjAddr: 0x1710, symBinAddr: 0x1000026F8, symSize: 0x110 }
  - { offsetInCU: 0xB725, offset: 0xB725, size: 0x8, addend: 0x0, symName: __ZNSt3__16vectorINS0_IiNS_9allocatorIiEEEENS1_IS3_EEE26__swap_out_circular_bufferERNS_14__split_bufferIS3_RS4_EE, symObjAddr: 0x3054, symBinAddr: 0x10000403C, symSize: 0x110 }
  - { offsetInCU: 0xDB77, offset: 0xDB77, size: 0x8, addend: 0x0, symName: _main, symObjAddr: 0x0, symBinAddr: 0x100000FE8, symSize: 0x2F4 }
  - { offsetInCU: 0xDC68, offset: 0xDC68, size: 0x8, addend: 0x0, symName: __ZNSt3__16vectorIiNS_9allocatorIiEEEC1Em, symObjAddr: 0x2F4, symBinAddr: 0x1000012DC, symSize: 0x34 }
  - { offsetInCU: 0xDCA2, offset: 0xDCA2, size: 0x8, addend: 0x0, symName: __ZNSt3__16vectorIiNS_9allocatorIiEEEixB8ue170006Em, symObjAddr: 0x328, symBinAddr: 0x100001310, symSize: 0x24 }
  - { offsetInCU: 0xDD02, offset: 0xDD02, size: 0x8, addend: 0x0, symName: __ZN8Solution8threeSumERNSt3__16vectorIiNS0_9allocatorIiEEEE, symObjAddr: 0x34C, symBinAddr: 0x100001334, symSize: 0x4D0 }
  - { offsetInCU: 0xDE03, offset: 0xDE03, size: 0x8, addend: 0x0, symName: __ZNSt3__16vectorINS0_IiNS_9allocatorIiEEEENS1_IS3_EEE5beginB8ue170006Ev, symObjAddr: 0x81C, symBinAddr: 0x100001804, symSize: 0x30 }
  - { offsetInCU: 0xDE29, offset: 0xDE29, size: 0x8, addend: 0x0, symName: __ZNSt3__16vectorINS0_IiNS_9allocatorIiEEEENS1_IS3_EEE3endB8ue170006Ev, symObjAddr: 0x84C, symBinAddr: 0x100001834, symSize: 0x30 }
  - { offsetInCU: 0xDE50, offset: 0xDE50, size: 0x8, addend: 0x0, symName: __ZNKSt3__111__wrap_iterIPNS_6vectorIiNS_9allocatorIiEEEEEdeB8ue170006Ev, symObjAddr: 0x8B0, symBinAddr: 0x100001898, symSize: 0x18 }
  - { offsetInCU: 0xDE75, offset: 0xDE75, size: 0x8, addend: 0x0, symName: __ZNSt3__16vectorIiNS_9allocatorIiEEEC1ERKS3_, symObjAddr: 0x8C8, symBinAddr: 0x1000018B0, symSize: 0x34 }
  - { offsetInCU: 0xDEAE, offset: 0xDEAE, size: 0x8, addend: 0x0, symName: __ZNSt3__16vectorIiNS_9allocatorIiEEE5beginB8ue170006Ev, symObjAddr: 0x930, symBinAddr: 0x100001918, symSize: 0x30 }
  - { offsetInCU: 0xDED4, offset: 0xDED4, size: 0x8, addend: 0x0, symName: __ZNSt3__16vectorIiNS_9allocatorIiEEE3endB8ue170006Ev, symObjAddr: 0x960, symBinAddr: 0x100001948, symSize: 0x30 }
  - { offsetInCU: 0xDEFB, offset: 0xDEFB, size: 0x8, addend: 0x0, symName: __ZNKSt3__111__wrap_iterIPiEdeB8ue170006Ev, symObjAddr: 0x9C4, symBinAddr: 0x1000019AC, symSize: 0x18 }
  - { offsetInCU: 0xDF20, offset: 0xDF20, size: 0x8, addend: 0x0, symName: __ZNSt3__111__wrap_iterIPiEppB8ue170006Ev, symObjAddr: 0x9DC, symBinAddr: 0x1000019C4, symSize: 0x20 }
  - { offsetInCU: 0xDF45, offset: 0xDF45, size: 0x8, addend: 0x0, symName: __ZNSt3__113basic_ostreamIcNS_11char_traitsIcEEElsB8ue170006EPFRS3_S4_E, symObjAddr: 0x9FC, symBinAddr: 0x1000019E4, symSize: 0x2C }
  - { offsetInCU: 0xDF78, offset: 0xDF78, size: 0x8, addend: 0x0, symName: __ZNSt3__16vectorIiNS_9allocatorIiEEED1B8ue170006Ev, symObjAddr: 0xA80, symBinAddr: 0x100001A68, symSize: 0x2C }
  - { offsetInCU: 0xDFA1, offset: 0xDFA1, size: 0x8, addend: 0x0, symName: __ZNSt3__111__wrap_iterIPNS_6vectorIiNS_9allocatorIiEEEEEppB8ue170006Ev, symObjAddr: 0xAAC, symBinAddr: 0x100001A94, symSize: 0x20 }
  - { offsetInCU: 0xDFC6, offset: 0xDFC6, size: 0x8, addend: 0x0, symName: __ZNSt3__16vectorINS0_IiNS_9allocatorIiEEEENS1_IS3_EEED1B8ue170006Ev, symObjAddr: 0xACC, symBinAddr: 0x100001AB4, symSize: 0x2C }
  - { offsetInCU: 0xDFEF, offset: 0xDFEF, size: 0x8, addend: 0x0, symName: __ZNSt3__16vectorINS0_IiNS_9allocatorIiEEEENS1_IS3_EEEC1B8ue170006Ev, symObjAddr: 0xAF8, symBinAddr: 0x100001AE0, symSize: 0x2C }
  - { offsetInCU: 0xE018, offset: 0xE018, size: 0x8, addend: 0x0, symName: __ZNKSt3__16vectorIiNS_9allocatorIiEEE4sizeB8ue170006Ev, symObjAddr: 0xB60, symBinAddr: 0x100001B48, symSize: 0x28 }
  - { offsetInCU: 0xE03D, offset: 0xE03D, size: 0x8, addend: 0x0, symName: __ZNSt3__16vectorIiNS_9allocatorIiEEEC1B8ue170006Ev, symObjAddr: 0xB88, symBinAddr: 0x100001B70, symSize: 0x2C }
  - { offsetInCU: 0xE065, offset: 0xE065, size: 0x8, addend: 0x0, symName: __ZNSt3__16vectorIiNS_9allocatorIiEEE9push_backB8ue170006ERKi, symObjAddr: 0xBB4, symBinAddr: 0x100001B9C, symSize: 0x6C }
  - { offsetInCU: 0xE09A, offset: 0xE09A, size: 0x8, addend: 0x0, symName: __ZNSt3__16vectorINS0_IiNS_9allocatorIiEEEENS1_IS3_EEE9push_backB8ue170006ERKS3_, symObjAddr: 0xC20, symBinAddr: 0x100001C08, symSize: 0x6C }
  - { offsetInCU: 0xE0CF, offset: 0xE0CF, size: 0x8, addend: 0x0, symName: __ZNSt3__16vectorIiNS_9allocatorIiEEE5eraseB8ue170006ENS_11__wrap_iterIPKiEE, symObjAddr: 0xD04, symBinAddr: 0x100001CEC, symSize: 0x94 }
  - { offsetInCU: 0xE12D, offset: 0xE12D, size: 0x8, addend: 0x0, symName: __ZNSt3__111__wrap_iterIPKiEC1B8ue170006IPiEERKNS0_IT_EEPNS_9enable_ifIXsr14is_convertibleIS6_S2_EE5valueEvE4typeE, symObjAddr: 0xD98, symBinAddr: 0x100001D80, symSize: 0x3C }
  - { offsetInCU: 0xE178, offset: 0xE178, size: 0x8, addend: 0x0, symName: __ZNSt3__16vectorINS0_IiNS_9allocatorIiEEEENS1_IS3_EEEC2B8ue170006Ev, symObjAddr: 0xDD4, symBinAddr: 0x100001DBC, symSize: 0x4C }
  - { offsetInCU: 0xE1AB, offset: 0xE1AB, size: 0x8, addend: 0x0, symName: __ZNSt3__117__compressed_pairIPNS_6vectorIiNS_9allocatorIiEEEENS2_IS4_EEEC1B8ue170006IDnNS_18__default_init_tagEEEOT_OT0_, symObjAddr: 0xE20, symBinAddr: 0x100001E08, symSize: 0x3C }
  - { offsetInCU: 0xE202, offset: 0xE202, size: 0x8, addend: 0x0, symName: __ZNSt3__117__compressed_pairIPNS_6vectorIiNS_9allocatorIiEEEENS2_IS4_EEEC2B8ue170006IDnNS_18__default_init_tagEEEOT_OT0_, symObjAddr: 0xE68, symBinAddr: 0x100001E50, symSize: 0x40 }
  - { offsetInCU: 0xE259, offset: 0xE259, size: 0x8, addend: 0x0, symName: __ZNSt3__122__compressed_pair_elemIPNS_6vectorIiNS_9allocatorIiEEEELi0ELb0EEC2B8ue170006IDnvEEOT_, symObjAddr: 0xEA8, symBinAddr: 0x100001E90, symSize: 0x1C }
  - { offsetInCU: 0xE29A, offset: 0xE29A, size: 0x8, addend: 0x0, symName: __ZNSt3__122__compressed_pair_elemINS_9allocatorINS_6vectorIiNS1_IiEEEEEELi1ELb1EEC2B8ue170006ENS_18__default_init_tagE, symObjAddr: 0xEC4, symBinAddr: 0x100001EAC, symSize: 0x2C }
  - { offsetInCU: 0xE2CE, offset: 0xE2CE, size: 0x8, addend: 0x0, symName: __ZNSt3__19allocatorINS_6vectorIiNS0_IiEEEEEC2B8ue170006Ev, symObjAddr: 0xEF0, symBinAddr: 0x100001ED8, symSize: 0x2C }
  - { offsetInCU: 0xE2F7, offset: 0xE2F7, size: 0x8, addend: 0x0, symName: __ZNSt3__116__non_trivial_ifILb1ENS_9allocatorINS_6vectorIiNS1_IiEEEEEEEC2B8ue170006Ev, symObjAddr: 0xF1C, symBinAddr: 0x100001F04, symSize: 0x14 }
  - { offsetInCU: 0xE320, offset: 0xE320, size: 0x8, addend: 0x0, symName: __ZNSt3__118__unwrap_iter_implINS_11__wrap_iterIPiEELb1EE8__unwrapB8ue170006ES3_, symObjAddr: 0x10A4, symBinAddr: 0x10000208C, symSize: 0x28 }
  - { offsetInCU: 0xE348, offset: 0xE348, size: 0x8, addend: 0x0, symName: __ZNSt3__119__to_address_helperINS_11__wrap_iterIPiEEvE6__callB8ue170006ERKS3_, symObjAddr: 0x10F0, symBinAddr: 0x1000020D8, symSize: 0x30 }
  - { offsetInCU: 0xE36B, offset: 0xE36B, size: 0x8, addend: 0x0, symName: __ZNSt3__114pointer_traitsINS_11__wrap_iterIPiEEE10to_addressB8ue170006ES3_, symObjAddr: 0x1120, symBinAddr: 0x100002108, symSize: 0x2C }
  - { offsetInCU: 0xE38E, offset: 0xE38E, size: 0x8, addend: 0x0, symName: __ZNKSt3__111__wrap_iterIPiE4baseB8ue170006Ev, symObjAddr: 0x1160, symBinAddr: 0x100002148, symSize: 0x18 }
  - { offsetInCU: 0xE3B3, offset: 0xE3B3, size: 0x8, addend: 0x0, symName: __ZNSt3__16vectorIiNS_9allocatorIiEEEC2B8ue170006Ev, symObjAddr: 0x1178, symBinAddr: 0x100002160, symSize: 0x4C }
  - { offsetInCU: 0xE3DC, offset: 0xE3DC, size: 0x8, addend: 0x0, symName: __ZNSt3__117__compressed_pairIPiNS_9allocatorIiEEEC1B8ue170006IDnNS_18__default_init_tagEEEOT_OT0_, symObjAddr: 0x11C4, symBinAddr: 0x1000021AC, symSize: 0x3C }
  - { offsetInCU: 0xE433, offset: 0xE433, size: 0x8, addend: 0x0, symName: __ZNSt3__117__compressed_pairIPiNS_9allocatorIiEEEC2B8ue170006IDnNS_18__default_init_tagEEEOT_OT0_, symObjAddr: 0x1200, symBinAddr: 0x1000021E8, symSize: 0x40 }
  - { offsetInCU: 0xE48A, offset: 0xE48A, size: 0x8, addend: 0x0, symName: __ZNSt3__122__compressed_pair_elemIPiLi0ELb0EEC2B8ue170006IDnvEEOT_, symObjAddr: 0x1240, symBinAddr: 0x100002228, symSize: 0x1C }
  - { offsetInCU: 0xE4CB, offset: 0xE4CB, size: 0x8, addend: 0x0, symName: __ZNSt3__122__compressed_pair_elemINS_9allocatorIiEELi1ELb1EEC2B8ue170006ENS_18__default_init_tagE, symObjAddr: 0x125C, symBinAddr: 0x100002244, symSize: 0x2C }
  - { offsetInCU: 0xE4FF, offset: 0xE4FF, size: 0x8, addend: 0x0, symName: __ZNSt3__19allocatorIiEC2B8ue170006Ev, symObjAddr: 0x1288, symBinAddr: 0x100002270, symSize: 0x2C }
  - { offsetInCU: 0xE528, offset: 0xE528, size: 0x8, addend: 0x0, symName: __ZNSt3__116__non_trivial_ifILb1ENS_9allocatorIiEEEC2B8ue170006Ev, symObjAddr: 0x12B4, symBinAddr: 0x10000229C, symSize: 0x14 }
  - { offsetInCU: 0xE551, offset: 0xE551, size: 0x8, addend: 0x0, symName: __ZNSt3__16vectorIiNS_9allocatorIiEEE9__end_capB8ue170006Ev, symObjAddr: 0x12C8, symBinAddr: 0x1000022B0, symSize: 0x28 }
  - { offsetInCU: 0xE576, offset: 0xE576, size: 0x8, addend: 0x0, symName: __ZNSt3__16vectorIiNS_9allocatorIiEEE22__construct_one_at_endB8ue170006IJRKiEEEvDpOT_, symObjAddr: 0x12F0, symBinAddr: 0x1000022D8, symSize: 0x90 }
  - { offsetInCU: 0xE5C3, offset: 0xE5C3, size: 0x8, addend: 0x0, symName: __ZNSt3__16vectorIiNS_9allocatorIiEEE21__push_back_slow_pathIRKiEEvOT_, symObjAddr: 0x1380, symBinAddr: 0x100002368, symSize: 0xD8 }
  - { offsetInCU: 0xE620, offset: 0xE620, size: 0x8, addend: 0x0, symName: __ZNSt3__117__compressed_pairIPiNS_9allocatorIiEEE5firstB8ue170006Ev, symObjAddr: 0x1458, symBinAddr: 0x100002440, symSize: 0x24 }
  - { offsetInCU: 0xE645, offset: 0xE645, size: 0x8, addend: 0x0, symName: __ZNSt3__122__compressed_pair_elemIPiLi0ELb0EE5__getB8ue170006Ev, symObjAddr: 0x147C, symBinAddr: 0x100002464, symSize: 0x14 }
  - { offsetInCU: 0xE683, offset: 0xE683, size: 0x8, addend: 0x0, symName: __ZNSt3__16vectorIiNS_9allocatorIiEEE21_ConstructTransactionC1B8ue170006ERS3_m, symObjAddr: 0x1490, symBinAddr: 0x100002478, symSize: 0x3C }
  - { offsetInCU: 0xE6CA, offset: 0xE6CA, size: 0x8, addend: 0x0, symName: __ZNSt3__116allocator_traitsINS_9allocatorIiEEE9constructB8ue170006IiJRKiEvEEvRS2_PT_DpOT0_, symObjAddr: 0x14CC, symBinAddr: 0x1000024B4, symSize: 0x34 }
  - { offsetInCU: 0xE721, offset: 0xE721, size: 0x8, addend: 0x0, symName: __ZNSt3__16vectorIiNS_9allocatorIiEEE7__allocB8ue170006Ev, symObjAddr: 0x1500, symBinAddr: 0x1000024E8, symSize: 0x28 }
  - { offsetInCU: 0xE746, offset: 0xE746, size: 0x8, addend: 0x0, symName: __ZNSt3__16vectorIiNS_9allocatorIiEEE21_ConstructTransactionD1B8ue170006Ev, symObjAddr: 0x1528, symBinAddr: 0x100002510, symSize: 0x2C }
  - { offsetInCU: 0xE76F, offset: 0xE76F, size: 0x8, addend: 0x0, symName: __ZNSt3__16vectorIiNS_9allocatorIiEEE21_ConstructTransactionC2B8ue170006ERS3_m, symObjAddr: 0x1554, symBinAddr: 0x10000253C, symSize: 0x44 }
  - { offsetInCU: 0xE7B6, offset: 0xE7B6, size: 0x8, addend: 0x0, symName: __ZNSt3__19allocatorIiE9constructB8ue170006IiJRKiEEEvPT_DpOT0_, symObjAddr: 0x1598, symBinAddr: 0x100002580, symSize: 0x28 }
  - { offsetInCU: 0xE80B, offset: 0xE80B, size: 0x8, addend: 0x0, symName: __ZNSt3__117__compressed_pairIPiNS_9allocatorIiEEE6secondB8ue170006Ev, symObjAddr: 0x15C0, symBinAddr: 0x1000025A8, symSize: 0x24 }
  - { offsetInCU: 0xE830, offset: 0xE830, size: 0x8, addend: 0x0, symName: __ZNSt3__122__compressed_pair_elemINS_9allocatorIiEELi1ELb1EE5__getB8ue170006Ev, symObjAddr: 0x15E4, symBinAddr: 0x1000025CC, symSize: 0x14 }
  - { offsetInCU: 0xE855, offset: 0xE855, size: 0x8, addend: 0x0, symName: __ZNSt3__16vectorIiNS_9allocatorIiEEE21_ConstructTransactionD2B8ue170006Ev, symObjAddr: 0x15F8, symBinAddr: 0x1000025E0, symSize: 0x20 }
  - { offsetInCU: 0xE87D, offset: 0xE87D, size: 0x8, addend: 0x0, symName: __ZNKSt3__16vectorIiNS_9allocatorIiEEE11__recommendB8ue170006Em, symObjAddr: 0x1618, symBinAddr: 0x100002600, symSize: 0xB4 }
  - { offsetInCU: 0xE8D1, offset: 0xE8D1, size: 0x8, addend: 0x0, symName: __ZNSt3__114__split_bufferIiRNS_9allocatorIiEEEC1EmmS3_, symObjAddr: 0x16CC, symBinAddr: 0x1000026B4, symSize: 0x44 }
  - { offsetInCU: 0xE926, offset: 0xE926, size: 0x8, addend: 0x0, symName: __ZNSt3__114__split_bufferIiRNS_9allocatorIiEEED1Ev, symObjAddr: 0x1820, symBinAddr: 0x100002808, symSize: 0x2C }
  - { offsetInCU: 0xE950, offset: 0xE950, size: 0x8, addend: 0x0, symName: __ZNKSt3__16vectorIiNS_9allocatorIiEEE8max_sizeEv, symObjAddr: 0x184C, symBinAddr: 0x100002834, symSize: 0x60 }
  - { offsetInCU: 0xE977, offset: 0xE977, size: 0x8, addend: 0x0, symName: __ZNKSt3__16vectorIiNS_9allocatorIiEEE20__throw_length_errorB8ue170006Ev, symObjAddr: 0x18AC, symBinAddr: 0x100002894, symSize: 0x1C }
  - { offsetInCU: 0xE99C, offset: 0xE99C, size: 0x8, addend: 0x0, symName: __ZNKSt3__16vectorIiNS_9allocatorIiEEE8capacityB8ue170006Ev, symObjAddr: 0x18C8, symBinAddr: 0x1000028B0, symSize: 0x40 }
  - { offsetInCU: 0xE9CB, offset: 0xE9CB, size: 0x8, addend: 0x0, symName: __ZNSt3__116allocator_traitsINS_9allocatorIiEEE8max_sizeB8ue170006IS2_vEEmRKS2_, symObjAddr: 0x1960, symBinAddr: 0x100002948, symSize: 0x24 }
  - { offsetInCU: 0xE9F9, offset: 0xE9F9, size: 0x8, addend: 0x0, symName: __ZNKSt3__16vectorIiNS_9allocatorIiEEE7__allocB8ue170006Ev, symObjAddr: 0x1984, symBinAddr: 0x10000296C, symSize: 0x28 }
  - { offsetInCU: 0xEA1E, offset: 0xEA1E, size: 0x8, addend: 0x0, symName: __ZNSt3__114numeric_limitsIlE3maxB8ue170006Ev, symObjAddr: 0x19AC, symBinAddr: 0x100002994, symSize: 0x14 }
  - { offsetInCU: 0xEA46, offset: 0xEA46, size: 0x8, addend: 0x0, symName: __ZNKSt3__16__lessIvvEclB8ue170006ImmEEbRKT_RKT0_, symObjAddr: 0x1A14, symBinAddr: 0x1000029FC, symSize: 0x34 }
  - { offsetInCU: 0xEA99, offset: 0xEA99, size: 0x8, addend: 0x0, symName: __ZNKSt3__19allocatorIiE8max_sizeB8ue170006Ev, symObjAddr: 0x1A48, symBinAddr: 0x100002A30, symSize: 0x14 }
  - { offsetInCU: 0xEABE, offset: 0xEABE, size: 0x8, addend: 0x0, symName: __ZNKSt3__117__compressed_pairIPiNS_9allocatorIiEEE6secondB8ue170006Ev, symObjAddr: 0x1A5C, symBinAddr: 0x100002A44, symSize: 0x24 }
  - { offsetInCU: 0xEAE3, offset: 0xEAE3, size: 0x8, addend: 0x0, symName: __ZNKSt3__122__compressed_pair_elemINS_9allocatorIiEELi1ELb1EE5__getB8ue170006Ev, symObjAddr: 0x1A80, symBinAddr: 0x100002A68, symSize: 0x14 }
  - { offsetInCU: 0xEB08, offset: 0xEB08, size: 0x8, addend: 0x0, symName: __ZNSt3__123__libcpp_numeric_limitsIlLb1EE3maxB8ue170006Ev, symObjAddr: 0x1A94, symBinAddr: 0x100002A7C, symSize: 0x8 }
  - { offsetInCU: 0xEB1C, offset: 0xEB1C, size: 0x8, addend: 0x0, symName: __ZNSt12length_errorC1B8ue170006EPKc, symObjAddr: 0x1B00, symBinAddr: 0x100002AE8, symSize: 0x34 }
  - { offsetInCU: 0xEB53, offset: 0xEB53, size: 0x8, addend: 0x0, symName: __ZNSt12length_errorC2B8ue170006EPKc, symObjAddr: 0x1B34, symBinAddr: 0x100002B1C, symSize: 0x4C }
  - { offsetInCU: 0xEB8A, offset: 0xEB8A, size: 0x8, addend: 0x0, symName: __ZNKSt3__16vectorIiNS_9allocatorIiEEE9__end_capB8ue170006Ev, symObjAddr: 0x1B80, symBinAddr: 0x100002B68, symSize: 0x28 }
  - { offsetInCU: 0xEBAF, offset: 0xEBAF, size: 0x8, addend: 0x0, symName: __ZNKSt3__117__compressed_pairIPiNS_9allocatorIiEEE5firstB8ue170006Ev, symObjAddr: 0x1BA8, symBinAddr: 0x100002B90, symSize: 0x24 }
  - { offsetInCU: 0xEBD4, offset: 0xEBD4, size: 0x8, addend: 0x0, symName: __ZNKSt3__122__compressed_pair_elemIPiLi0ELb0EE5__getB8ue170006Ev, symObjAddr: 0x1BCC, symBinAddr: 0x100002BB4, symSize: 0x14 }
  - { offsetInCU: 0xEBF9, offset: 0xEBF9, size: 0x8, addend: 0x0, symName: __ZNSt3__114__split_bufferIiRNS_9allocatorIiEEEC2EmmS3_, symObjAddr: 0x1C34, symBinAddr: 0x100002C1C, symSize: 0xD4 }
  - { offsetInCU: 0xEC6C, offset: 0xEC6C, size: 0x8, addend: 0x0, symName: __ZNSt3__117__compressed_pairIPiRNS_9allocatorIiEEEC1B8ue170006IDnS4_EEOT_OT0_, symObjAddr: 0x1D08, symBinAddr: 0x100002CF0, symSize: 0x3C }
  - { offsetInCU: 0xECC3, offset: 0xECC3, size: 0x8, addend: 0x0, symName: __ZNSt3__114__split_bufferIiRNS_9allocatorIiEEE7__allocB8ue170006Ev, symObjAddr: 0x1D84, symBinAddr: 0x100002D6C, symSize: 0x28 }
  - { offsetInCU: 0xECE8, offset: 0xECE8, size: 0x8, addend: 0x0, symName: __ZNSt3__114__split_bufferIiRNS_9allocatorIiEEE9__end_capB8ue170006Ev, symObjAddr: 0x1DAC, symBinAddr: 0x100002D94, symSize: 0x28 }
  - { offsetInCU: 0xED0D, offset: 0xED0D, size: 0x8, addend: 0x0, symName: __ZNSt3__117__compressed_pairIPiRNS_9allocatorIiEEEC2B8ue170006IDnS4_EEOT_OT0_, symObjAddr: 0x1DD4, symBinAddr: 0x100002DBC, symSize: 0x48 }
  - { offsetInCU: 0xED64, offset: 0xED64, size: 0x8, addend: 0x0, symName: __ZNSt3__122__compressed_pair_elemIRNS_9allocatorIiEELi1ELb0EEC2B8ue170006IS3_vEEOT_, symObjAddr: 0x1E1C, symBinAddr: 0x100002E04, symSize: 0x20 }
  - { offsetInCU: 0xEDA5, offset: 0xEDA5, size: 0x8, addend: 0x0, symName: __ZNSt3__19allocatorIiE8allocateB8ue170006Em, symObjAddr: 0x1E3C, symBinAddr: 0x100002E24, symSize: 0x58 }
  - { offsetInCU: 0xEDD8, offset: 0xEDD8, size: 0x8, addend: 0x0, symName: __ZNSt3__117__compressed_pairIPiRNS_9allocatorIiEEE6secondB8ue170006Ev, symObjAddr: 0x1F14, symBinAddr: 0x100002EFC, symSize: 0x28 }
  - { offsetInCU: 0xEDFD, offset: 0xEDFD, size: 0x8, addend: 0x0, symName: __ZNSt3__122__compressed_pair_elemIRNS_9allocatorIiEELi1ELb0EE5__getB8ue170006Ev, symObjAddr: 0x1F3C, symBinAddr: 0x100002F24, symSize: 0x18 }
  - { offsetInCU: 0xEE22, offset: 0xEE22, size: 0x8, addend: 0x0, symName: __ZNSt3__117__compressed_pairIPiRNS_9allocatorIiEEE5firstB8ue170006Ev, symObjAddr: 0x1F54, symBinAddr: 0x100002F3C, symSize: 0x24 }
  - { offsetInCU: 0xEE47, offset: 0xEE47, size: 0x8, addend: 0x0, symName: __ZNKSt3__16vectorIiNS_9allocatorIiEEE17__annotate_deleteB8ue170006Ev, symObjAddr: 0x1F78, symBinAddr: 0x100002F60, symSize: 0xB8 }
  - { offsetInCU: 0xEE6C, offset: 0xEE6C, size: 0x8, addend: 0x0, symName: __ZNSt3__116reverse_iteratorIPiEC1B8ue170006ES1_, symObjAddr: 0x20A8, symBinAddr: 0x100003090, symSize: 0x34 }
  - { offsetInCU: 0xEEA3, offset: 0xEEA3, size: 0x8, addend: 0x0, symName: __ZNKSt3__116reverse_iteratorIPiE4baseB8ue170006Ev, symObjAddr: 0x20DC, symBinAddr: 0x1000030C4, symSize: 0x18 }
  - { offsetInCU: 0xEEC8, offset: 0xEEC8, size: 0x8, addend: 0x0, symName: __ZNKSt3__16vectorIiNS_9allocatorIiEEE14__annotate_newB8ue170006Em, symObjAddr: 0x2130, symBinAddr: 0x100003118, symSize: 0xAC }
  - { offsetInCU: 0xEEFC, offset: 0xEEFC, size: 0x8, addend: 0x0, symName: __ZNKSt3__16vectorIiNS_9allocatorIiEEE31__annotate_contiguous_containerB8ue170006EPKvS5_S5_S5_, symObjAddr: 0x21DC, symBinAddr: 0x1000031C4, symSize: 0x20 }
  - { offsetInCU: 0xEF4D, offset: 0xEF4D, size: 0x8, addend: 0x0, symName: __ZNKSt3__16vectorIiNS_9allocatorIiEEE4dataB8ue170006Ev, symObjAddr: 0x21FC, symBinAddr: 0x1000031E4, symSize: 0x28 }
  - { offsetInCU: 0xEF95, offset: 0xEF95, size: 0x8, addend: 0x0, symName: __ZNKSt3__111__move_loopINS_17_ClassicAlgPolicyEEclB8ue170006INS_16reverse_iteratorIPiEES6_S6_EENS_4pairIT_T1_EES8_T0_S9_, symObjAddr: 0x2514, symBinAddr: 0x1000034FC, symSize: 0xA0 }
  - { offsetInCU: 0xF004, offset: 0xF004, size: 0x8, addend: 0x0, symName: __ZNSt3__18_IterOpsINS_17_ClassicAlgPolicyEE11__iter_moveB8ue170006IRNS_16reverse_iteratorIPiEEEENS_9enable_ifIXsr12is_referenceIDTdeclsr3stdE7declvalIRT_EEEEE5valueEDTclsr3stdE4movedeclsr3stdE7declvalISA_EEEEE4typeEOS9_, symObjAddr: 0x2748, symBinAddr: 0x100003730, symSize: 0x28 }
  - { offsetInCU: 0xF030, offset: 0xF030, size: 0x8, addend: 0x0, symName: __ZNKSt3__116reverse_iteratorIPiEdeB8ue170006Ev, symObjAddr: 0x2770, symBinAddr: 0x100003758, symSize: 0x28 }
  - { offsetInCU: 0xF063, offset: 0xF063, size: 0x8, addend: 0x0, symName: __ZNSt3__116reverse_iteratorIPiEppB8ue170006Ev, symObjAddr: 0x2798, symBinAddr: 0x100003780, symSize: 0x20 }
  - { offsetInCU: 0xF088, offset: 0xF088, size: 0x8, addend: 0x0, symName: __ZNSt3__18_IterOpsINS_17_ClassicAlgPolicyEE25__validate_iter_referenceB8ue170006IRNS_16reverse_iteratorIPiEEEEvv, symObjAddr: 0x27B8, symBinAddr: 0x1000037A0, symSize: 0x4 }
  - { offsetInCU: 0xF0A6, offset: 0xF0A6, size: 0x8, addend: 0x0, symName: __ZNSt3__118__unwrap_iter_implINS_16reverse_iteratorIPiEELb0EE8__unwrapB8ue170006ES3_, symObjAddr: 0x27BC, symBinAddr: 0x1000037A4, symSize: 0x24 }
  - { offsetInCU: 0xF0CE, offset: 0xF0CE, size: 0x8, addend: 0x0, symName: __ZNSt3__14pairINS_16reverse_iteratorIPiEES3_EC1B8ue170006IS3_S3_LPv0EEEOT_OT0_, symObjAddr: 0x27E0, symBinAddr: 0x1000037C8, symSize: 0x3C }
  - { offsetInCU: 0xF12B, offset: 0xF12B, size: 0x8, addend: 0x0, symName: __ZNSt3__14pairINS_16reverse_iteratorIPiEES3_EC2B8ue170006IS3_S3_LPv0EEEOT_OT0_, symObjAddr: 0x281C, symBinAddr: 0x100003804, symSize: 0x34 }
  - { offsetInCU: 0xF188, offset: 0xF188, size: 0x8, addend: 0x0, symName: __ZNSt3__118__unwrap_iter_implINS_16reverse_iteratorIPiEELb0EE8__rewrapB8ue170006ES3_S3_, symObjAddr: 0x2850, symBinAddr: 0x100003838, symSize: 0x2C }
  - { offsetInCU: 0xF1B6, offset: 0xF1B6, size: 0x8, addend: 0x0, symName: __ZNSt3__116reverse_iteratorIPiEC2B8ue170006ES1_, symObjAddr: 0x287C, symBinAddr: 0x100003864, symSize: 0x28 }
  - { offsetInCU: 0xF1ED, offset: 0xF1ED, size: 0x8, addend: 0x0, symName: __ZNSt3__114__split_bufferIiRNS_9allocatorIiEEED2Ev, symObjAddr: 0x28A4, symBinAddr: 0x10000388C, symSize: 0x8C }
  - { offsetInCU: 0xF218, offset: 0xF218, size: 0x8, addend: 0x0, symName: __ZNSt3__114__split_bufferIiRNS_9allocatorIiEEE5clearB8ue170006Ev, symObjAddr: 0x2930, symBinAddr: 0x100003918, symSize: 0x28 }
  - { offsetInCU: 0xF23D, offset: 0xF23D, size: 0x8, addend: 0x0, symName: __ZNSt3__116allocator_traitsINS_9allocatorIiEEE10deallocateB8ue170006ERS2_Pim, symObjAddr: 0x2958, symBinAddr: 0x100003940, symSize: 0x34 }
  - { offsetInCU: 0xF27F, offset: 0xF27F, size: 0x8, addend: 0x0, symName: __ZNKSt3__114__split_bufferIiRNS_9allocatorIiEEE8capacityB8ue170006Ev, symObjAddr: 0x298C, symBinAddr: 0x100003974, symSize: 0x40 }
  - { offsetInCU: 0xF2A4, offset: 0xF2A4, size: 0x8, addend: 0x0, symName: __ZNSt3__114__split_bufferIiRNS_9allocatorIiEEE17__destruct_at_endB8ue170006EPi, symObjAddr: 0x29CC, symBinAddr: 0x1000039B4, symSize: 0x2C }
  - { offsetInCU: 0xF2D6, offset: 0xF2D6, size: 0x8, addend: 0x0, symName: __ZNSt3__114__split_bufferIiRNS_9allocatorIiEEE17__destruct_at_endB8ue170006EPiNS_17integral_constantIbLb0EEE, symObjAddr: 0x29F8, symBinAddr: 0x1000039E0, symSize: 0x80 }
  - { offsetInCU: 0xF316, offset: 0xF316, size: 0x8, addend: 0x0, symName: __ZNSt3__116allocator_traitsINS_9allocatorIiEEE7destroyB8ue170006IivEEvRS2_PT_, symObjAddr: 0x2A78, symBinAddr: 0x100003A60, symSize: 0x2C }
  - { offsetInCU: 0xF353, offset: 0xF353, size: 0x8, addend: 0x0, symName: __ZNSt3__19allocatorIiE7destroyB8ue170006EPi, symObjAddr: 0x2AA4, symBinAddr: 0x100003A8C, symSize: 0x14 }
  - { offsetInCU: 0xF386, offset: 0xF386, size: 0x8, addend: 0x0, symName: __ZNSt3__19allocatorIiE10deallocateB8ue170006EPim, symObjAddr: 0x2AB8, symBinAddr: 0x100003AA0, symSize: 0x40 }
  - { offsetInCU: 0xF3C7, offset: 0xF3C7, size: 0x8, addend: 0x0, symName: __ZNKSt3__114__split_bufferIiRNS_9allocatorIiEEE9__end_capB8ue170006Ev, symObjAddr: 0x2B74, symBinAddr: 0x100003B5C, symSize: 0x28 }
  - { offsetInCU: 0xF3EC, offset: 0xF3EC, size: 0x8, addend: 0x0, symName: __ZNKSt3__117__compressed_pairIPiRNS_9allocatorIiEEE5firstB8ue170006Ev, symObjAddr: 0x2B9C, symBinAddr: 0x100003B84, symSize: 0x24 }
  - { offsetInCU: 0xF411, offset: 0xF411, size: 0x8, addend: 0x0, symName: __ZNSt3__16vectorINS0_IiNS_9allocatorIiEEEENS1_IS3_EEE9__end_capB8ue170006Ev, symObjAddr: 0x2BC0, symBinAddr: 0x100003BA8, symSize: 0x28 }
  - { offsetInCU: 0xF436, offset: 0xF436, size: 0x8, addend: 0x0, symName: __ZNSt3__16vectorINS0_IiNS_9allocatorIiEEEENS1_IS3_EEE22__construct_one_at_endB8ue170006IJRKS3_EEEvDpOT_, symObjAddr: 0x2BE8, symBinAddr: 0x100003BD0, symSize: 0x90 }
  - { offsetInCU: 0xF483, offset: 0xF483, size: 0x8, addend: 0x0, symName: __ZNSt3__16vectorINS0_IiNS_9allocatorIiEEEENS1_IS3_EEE21__push_back_slow_pathIRKS3_EEvOT_, symObjAddr: 0x2C78, symBinAddr: 0x100003C60, symSize: 0xD8 }
  - { offsetInCU: 0xF4E0, offset: 0xF4E0, size: 0x8, addend: 0x0, symName: __ZNSt3__117__compressed_pairIPNS_6vectorIiNS_9allocatorIiEEEENS2_IS4_EEE5firstB8ue170006Ev, symObjAddr: 0x2D50, symBinAddr: 0x100003D38, symSize: 0x24 }
  - { offsetInCU: 0xF505, offset: 0xF505, size: 0x8, addend: 0x0, symName: __ZNSt3__122__compressed_pair_elemIPNS_6vectorIiNS_9allocatorIiEEEELi0ELb0EE5__getB8ue170006Ev, symObjAddr: 0x2D74, symBinAddr: 0x100003D5C, symSize: 0x14 }
  - { offsetInCU: 0xF543, offset: 0xF543, size: 0x8, addend: 0x0, symName: __ZNSt3__16vectorINS0_IiNS_9allocatorIiEEEENS1_IS3_EEE21_ConstructTransactionC1B8ue170006ERS5_m, symObjAddr: 0x2D88, symBinAddr: 0x100003D70, symSize: 0x3C }
  - { offsetInCU: 0xF58A, offset: 0xF58A, size: 0x8, addend: 0x0, symName: __ZNSt3__116allocator_traitsINS_9allocatorINS_6vectorIiNS1_IiEEEEEEE9constructB8ue170006IS4_JRKS4_EvEEvRS5_PT_DpOT0_, symObjAddr: 0x2DC4, symBinAddr: 0x100003DAC, symSize: 0x34 }
  - { offsetInCU: 0xF5E1, offset: 0xF5E1, size: 0x8, addend: 0x0, symName: __ZNSt3__16vectorINS0_IiNS_9allocatorIiEEEENS1_IS3_EEE7__allocB8ue170006Ev, symObjAddr: 0x2DF8, symBinAddr: 0x100003DE0, symSize: 0x28 }
  - { offsetInCU: 0xF606, offset: 0xF606, size: 0x8, addend: 0x0, symName: __ZNSt3__16vectorINS0_IiNS_9allocatorIiEEEENS1_IS3_EEE21_ConstructTransactionD1B8ue170006Ev, symObjAddr: 0x2E34, symBinAddr: 0x100003E1C, symSize: 0x2C }
  - { offsetInCU: 0xF62F, offset: 0xF62F, size: 0x8, addend: 0x0, symName: __ZNSt3__16vectorINS0_IiNS_9allocatorIiEEEENS1_IS3_EEE21_ConstructTransactionC2B8ue170006ERS5_m, symObjAddr: 0x2E60, symBinAddr: 0x100003E48, symSize: 0x4C }
  - { offsetInCU: 0xF676, offset: 0xF676, size: 0x8, addend: 0x0, symName: __ZNSt3__19allocatorINS_6vectorIiNS0_IiEEEEE9constructB8ue170006IS3_JRKS3_EEEvPT_DpOT0_, symObjAddr: 0x2EAC, symBinAddr: 0x100003E94, symSize: 0x30 }
  - { offsetInCU: 0xF6CB, offset: 0xF6CB, size: 0x8, addend: 0x0, symName: __ZNSt3__117__compressed_pairIPNS_6vectorIiNS_9allocatorIiEEEENS2_IS4_EEE6secondB8ue170006Ev, symObjAddr: 0x2EDC, symBinAddr: 0x100003EC4, symSize: 0x24 }
  - { offsetInCU: 0xF6F0, offset: 0xF6F0, size: 0x8, addend: 0x0, symName: __ZNSt3__122__compressed_pair_elemINS_9allocatorINS_6vectorIiNS1_IiEEEEEELi1ELb1EE5__getB8ue170006Ev, symObjAddr: 0x2F00, symBinAddr: 0x100003EE8, symSize: 0x14 }
  - { offsetInCU: 0xF715, offset: 0xF715, size: 0x8, addend: 0x0, symName: __ZNSt3__16vectorINS0_IiNS_9allocatorIiEEEENS1_IS3_EEE21_ConstructTransactionD2B8ue170006Ev, symObjAddr: 0x2F14, symBinAddr: 0x100003EFC, symSize: 0x20 }
  - { offsetInCU: 0xF73D, offset: 0xF73D, size: 0x8, addend: 0x0, symName: __ZNKSt3__16vectorINS0_IiNS_9allocatorIiEEEENS1_IS3_EEE11__recommendB8ue170006Em, symObjAddr: 0x2F34, symBinAddr: 0x100003F1C, symSize: 0xB4 }
  - { offsetInCU: 0xF791, offset: 0xF791, size: 0x8, addend: 0x0, symName: __ZNKSt3__16vectorINS0_IiNS_9allocatorIiEEEENS1_IS3_EEE4sizeB8ue170006Ev, symObjAddr: 0x2FE8, symBinAddr: 0x100003FD0, symSize: 0x28 }
  - { offsetInCU: 0xF7B6, offset: 0xF7B6, size: 0x8, addend: 0x0, symName: __ZNSt3__114__split_bufferINS_6vectorIiNS_9allocatorIiEEEERNS2_IS4_EEEC1EmmS6_, symObjAddr: 0x3010, symBinAddr: 0x100003FF8, symSize: 0x44 }
  - { offsetInCU: 0xF80B, offset: 0xF80B, size: 0x8, addend: 0x0, symName: __ZNSt3__114__split_bufferINS_6vectorIiNS_9allocatorIiEEEERNS2_IS4_EEED1Ev, symObjAddr: 0x3164, symBinAddr: 0x10000414C, symSize: 0x2C }
  - { offsetInCU: 0xF835, offset: 0xF835, size: 0x8, addend: 0x0, symName: __ZNKSt3__16vectorINS0_IiNS_9allocatorIiEEEENS1_IS3_EEE8max_sizeEv, symObjAddr: 0x3190, symBinAddr: 0x100004178, symSize: 0x60 }
  - { offsetInCU: 0xF85C, offset: 0xF85C, size: 0x8, addend: 0x0, symName: __ZNKSt3__16vectorINS0_IiNS_9allocatorIiEEEENS1_IS3_EEE20__throw_length_errorB8ue170006Ev, symObjAddr: 0x31F0, symBinAddr: 0x1000041D8, symSize: 0x1C }
  - { offsetInCU: 0xF881, offset: 0xF881, size: 0x8, addend: 0x0, symName: __ZNKSt3__16vectorINS0_IiNS_9allocatorIiEEEENS1_IS3_EEE8capacityB8ue170006Ev, symObjAddr: 0x320C, symBinAddr: 0x1000041F4, symSize: 0x40 }
  - { offsetInCU: 0xF8B0, offset: 0xF8B0, size: 0x8, addend: 0x0, symName: __ZNSt3__116allocator_traitsINS_9allocatorINS_6vectorIiNS1_IiEEEEEEE8max_sizeB8ue170006IS5_vEEmRKS5_, symObjAddr: 0x324C, symBinAddr: 0x100004234, symSize: 0x24 }
  - { offsetInCU: 0xF8DE, offset: 0xF8DE, size: 0x8, addend: 0x0, symName: __ZNKSt3__16vectorINS0_IiNS_9allocatorIiEEEENS1_IS3_EEE7__allocB8ue170006Ev, symObjAddr: 0x3270, symBinAddr: 0x100004258, symSize: 0x28 }
  - { offsetInCU: 0xF903, offset: 0xF903, size: 0x8, addend: 0x0, symName: __ZNKSt3__19allocatorINS_6vectorIiNS0_IiEEEEE8max_sizeB8ue170006Ev, symObjAddr: 0x3298, symBinAddr: 0x100004280, symSize: 0x18 }
  - { offsetInCU: 0xF928, offset: 0xF928, size: 0x8, addend: 0x0, symName: __ZNKSt3__117__compressed_pairIPNS_6vectorIiNS_9allocatorIiEEEENS2_IS4_EEE6secondB8ue170006Ev, symObjAddr: 0x32B0, symBinAddr: 0x100004298, symSize: 0x24 }
  - { offsetInCU: 0xF94D, offset: 0xF94D, size: 0x8, addend: 0x0, symName: __ZNKSt3__122__compressed_pair_elemINS_9allocatorINS_6vectorIiNS1_IiEEEEEELi1ELb1EE5__getB8ue170006Ev, symObjAddr: 0x32D4, symBinAddr: 0x1000042BC, symSize: 0x14 }
  - { offsetInCU: 0xF972, offset: 0xF972, size: 0x8, addend: 0x0, symName: __ZNKSt3__16vectorINS0_IiNS_9allocatorIiEEEENS1_IS3_EEE9__end_capB8ue170006Ev, symObjAddr: 0x32E8, symBinAddr: 0x1000042D0, symSize: 0x28 }
  - { offsetInCU: 0xF997, offset: 0xF997, size: 0x8, addend: 0x0, symName: __ZNKSt3__117__compressed_pairIPNS_6vectorIiNS_9allocatorIiEEEENS2_IS4_EEE5firstB8ue170006Ev, symObjAddr: 0x3310, symBinAddr: 0x1000042F8, symSize: 0x24 }
  - { offsetInCU: 0xF9BC, offset: 0xF9BC, size: 0x8, addend: 0x0, symName: __ZNKSt3__122__compressed_pair_elemIPNS_6vectorIiNS_9allocatorIiEEEELi0ELb0EE5__getB8ue170006Ev, symObjAddr: 0x3334, symBinAddr: 0x10000431C, symSize: 0x14 }
  - { offsetInCU: 0xF9E1, offset: 0xF9E1, size: 0x8, addend: 0x0, symName: __ZNSt3__114__split_bufferINS_6vectorIiNS_9allocatorIiEEEERNS2_IS4_EEEC2EmmS6_, symObjAddr: 0x3348, symBinAddr: 0x100004330, symSize: 0xE0 }
  - { offsetInCU: 0xFA54, offset: 0xFA54, size: 0x8, addend: 0x0, symName: __ZNSt3__117__compressed_pairIPNS_6vectorIiNS_9allocatorIiEEEERNS2_IS4_EEEC1B8ue170006IDnS7_EEOT_OT0_, symObjAddr: 0x3428, symBinAddr: 0x100004410, symSize: 0x3C }
  - { offsetInCU: 0xFAAB, offset: 0xFAAB, size: 0x8, addend: 0x0, symName: __ZNSt3__114__split_bufferINS_6vectorIiNS_9allocatorIiEEEERNS2_IS4_EEE7__allocB8ue170006Ev, symObjAddr: 0x34A4, symBinAddr: 0x10000448C, symSize: 0x28 }
  - { offsetInCU: 0xFAD0, offset: 0xFAD0, size: 0x8, addend: 0x0, symName: __ZNSt3__114__split_bufferINS_6vectorIiNS_9allocatorIiEEEERNS2_IS4_EEE9__end_capB8ue170006Ev, symObjAddr: 0x34CC, symBinAddr: 0x1000044B4, symSize: 0x28 }
  - { offsetInCU: 0xFAF5, offset: 0xFAF5, size: 0x8, addend: 0x0, symName: __ZNSt3__117__compressed_pairIPNS_6vectorIiNS_9allocatorIiEEEERNS2_IS4_EEEC2B8ue170006IDnS7_EEOT_OT0_, symObjAddr: 0x34F4, symBinAddr: 0x1000044DC, symSize: 0x48 }
  - { offsetInCU: 0xFB4C, offset: 0xFB4C, size: 0x8, addend: 0x0, symName: __ZNSt3__122__compressed_pair_elemIRNS_9allocatorINS_6vectorIiNS1_IiEEEEEELi1ELb0EEC2B8ue170006IS6_vEEOT_, symObjAddr: 0x353C, symBinAddr: 0x100004524, symSize: 0x20 }
  - { offsetInCU: 0xFB8D, offset: 0xFB8D, size: 0x8, addend: 0x0, symName: __ZNSt3__19allocatorINS_6vectorIiNS0_IiEEEEE8allocateB8ue170006Em, symObjAddr: 0x355C, symBinAddr: 0x100004544, symSize: 0x5C }
  - { offsetInCU: 0xFBC0, offset: 0xFBC0, size: 0x8, addend: 0x0, symName: __ZNSt3__117__compressed_pairIPNS_6vectorIiNS_9allocatorIiEEEERNS2_IS4_EEE6secondB8ue170006Ev, symObjAddr: 0x35B8, symBinAddr: 0x1000045A0, symSize: 0x28 }
  - { offsetInCU: 0xFBE5, offset: 0xFBE5, size: 0x8, addend: 0x0, symName: __ZNSt3__122__compressed_pair_elemIRNS_9allocatorINS_6vectorIiNS1_IiEEEEEELi1ELb0EE5__getB8ue170006Ev, symObjAddr: 0x35E0, symBinAddr: 0x1000045C8, symSize: 0x18 }
  - { offsetInCU: 0xFC0A, offset: 0xFC0A, size: 0x8, addend: 0x0, symName: __ZNSt3__117__compressed_pairIPNS_6vectorIiNS_9allocatorIiEEEERNS2_IS4_EEE5firstB8ue170006Ev, symObjAddr: 0x35F8, symBinAddr: 0x1000045E0, symSize: 0x24 }
  - { offsetInCU: 0xFC2F, offset: 0xFC2F, size: 0x8, addend: 0x0, symName: __ZNKSt3__16vectorINS0_IiNS_9allocatorIiEEEENS1_IS3_EEE17__annotate_deleteB8ue170006Ev, symObjAddr: 0x361C, symBinAddr: 0x100004604, symSize: 0xD4 }
  - { offsetInCU: 0xFC54, offset: 0xFC54, size: 0x8, addend: 0x0, symName: __ZNSt3__116reverse_iteratorIPNS_6vectorIiNS_9allocatorIiEEEEEC1B8ue170006ES5_, symObjAddr: 0x381C, symBinAddr: 0x100004804, symSize: 0x34 }
  - { offsetInCU: 0xFC8B, offset: 0xFC8B, size: 0x8, addend: 0x0, symName: __ZNKSt3__116reverse_iteratorIPNS_6vectorIiNS_9allocatorIiEEEEE4baseB8ue170006Ev, symObjAddr: 0x3850, symBinAddr: 0x100004838, symSize: 0x18 }
  - { offsetInCU: 0xFCB0, offset: 0xFCB0, size: 0x8, addend: 0x0, symName: __ZNKSt3__16vectorINS0_IiNS_9allocatorIiEEEENS1_IS3_EEE14__annotate_newB8ue170006Em, symObjAddr: 0x38A4, symBinAddr: 0x10000488C, symSize: 0xC8 }
  - { offsetInCU: 0xFCE4, offset: 0xFCE4, size: 0x8, addend: 0x0, symName: __ZNKSt3__16vectorINS0_IiNS_9allocatorIiEEEENS1_IS3_EEE31__annotate_contiguous_containerB8ue170006EPKvS7_S7_S7_, symObjAddr: 0x396C, symBinAddr: 0x100004954, symSize: 0x20 }
  - { offsetInCU: 0xFD35, offset: 0xFD35, size: 0x8, addend: 0x0, symName: __ZNKSt3__16vectorINS0_IiNS_9allocatorIiEEEENS1_IS3_EEE4dataB8ue170006Ev, symObjAddr: 0x398C, symBinAddr: 0x100004974, symSize: 0x28 }
  - { offsetInCU: 0xFD5A, offset: 0xFD5A, size: 0x8, addend: 0x0, symName: __ZNSt3__129_AllocatorDestroyRangeReverseINS_9allocatorINS_6vectorIiNS1_IiEEEEEENS_16reverse_iteratorIPS4_EEEC1B8ue170006ERS5_RS8_SB_, symObjAddr: 0x3A00, symBinAddr: 0x1000049E8, symSize: 0x44 }
  - { offsetInCU: 0xFDB0, offset: 0xFDB0, size: 0x8, addend: 0x0, symName: __ZNSt3__116allocator_traitsINS_9allocatorINS_6vectorIiNS1_IiEEEEEEE9constructB8ue170006IS4_JS4_EvEEvRS5_PT_DpOT0_, symObjAddr: 0x3A8C, symBinAddr: 0x100004A74, symSize: 0x34 }
  - { offsetInCU: 0xFE07, offset: 0xFE07, size: 0x8, addend: 0x0, symName: __ZNKSt3__116reverse_iteratorIPNS_6vectorIiNS_9allocatorIiEEEEEdeB8ue170006Ev, symObjAddr: 0x3AE4, symBinAddr: 0x100004ACC, symSize: 0x28 }
  - { offsetInCU: 0xFE3A, offset: 0xFE3A, size: 0x8, addend: 0x0, symName: __ZNSt3__116reverse_iteratorIPNS_6vectorIiNS_9allocatorIiEEEEEppB8ue170006Ev, symObjAddr: 0x3B0C, symBinAddr: 0x100004AF4, symSize: 0x20 }
  - { offsetInCU: 0xFE5F, offset: 0xFE5F, size: 0x8, addend: 0x0, symName: __ZNSt3__128__exception_guard_exceptionsINS_29_AllocatorDestroyRangeReverseINS_9allocatorINS_6vectorIiNS2_IiEEEEEENS_16reverse_iteratorIPS5_EEEEE10__completeB8ue170006Ev, symObjAddr: 0x3B2C, symBinAddr: 0x100004B14, symSize: 0x1C }
  - { offsetInCU: 0xFE84, offset: 0xFE84, size: 0x8, addend: 0x0, symName: __ZNSt3__128__exception_guard_exceptionsINS_29_AllocatorDestroyRangeReverseINS_9allocatorINS_6vectorIiNS2_IiEEEEEENS_16reverse_iteratorIPS5_EEEEED1B8ue170006Ev, symObjAddr: 0x3B48, symBinAddr: 0x100004B30, symSize: 0x2C }
  - { offsetInCU: 0xFEAD, offset: 0xFEAD, size: 0x8, addend: 0x0, symName: __ZNSt3__128__exception_guard_exceptionsINS_29_AllocatorDestroyRangeReverseINS_9allocatorINS_6vectorIiNS2_IiEEEEEENS_16reverse_iteratorIPS5_EEEEEC1B8ue170006ESA_, symObjAddr: 0x3B74, symBinAddr: 0x100004B5C, symSize: 0x34 }
  - { offsetInCU: 0xFEE5, offset: 0xFEE5, size: 0x8, addend: 0x0, symName: __ZNSt3__128__exception_guard_exceptionsINS_29_AllocatorDestroyRangeReverseINS_9allocatorINS_6vectorIiNS2_IiEEEEEENS_16reverse_iteratorIPS5_EEEEEC2B8ue170006ESA_, symObjAddr: 0x3BA8, symBinAddr: 0x100004B90, symSize: 0x30 }
  - { offsetInCU: 0xFF1D, offset: 0xFF1D, size: 0x8, addend: 0x0, symName: __ZNSt3__129_AllocatorDestroyRangeReverseINS_9allocatorINS_6vectorIiNS1_IiEEEEEENS_16reverse_iteratorIPS4_EEEC2B8ue170006ERS5_RS8_SB_, symObjAddr: 0x3BD8, symBinAddr: 0x100004BC0, symSize: 0x38 }
  - { offsetInCU: 0xFF73, offset: 0xFF73, size: 0x8, addend: 0x0, symName: __ZNSt3__19allocatorINS_6vectorIiNS0_IiEEEEE9constructB8ue170006IS3_JS3_EEEvPT_DpOT0_, symObjAddr: 0x3C10, symBinAddr: 0x100004BF8, symSize: 0x30 }
  - { offsetInCU: 0xFFC8, offset: 0xFFC8, size: 0x8, addend: 0x0, symName: __ZNSt3__16vectorIiNS_9allocatorIiEEEC1B8ue170006EOS3_, symObjAddr: 0x3C40, symBinAddr: 0x100004C28, symSize: 0x34 }
  - { offsetInCU: 0x10002, offset: 0x10002, size: 0x8, addend: 0x0, symName: __ZNSt3__16vectorIiNS_9allocatorIiEEEC2B8ue170006EOS3_, symObjAddr: 0x3C74, symBinAddr: 0x100004C5C, symSize: 0xC4 }
  - { offsetInCU: 0x10041, offset: 0x10041, size: 0x8, addend: 0x0, symName: __ZNSt3__117__compressed_pairIPiNS_9allocatorIiEEEC1B8ue170006IDnS3_EEOT_OT0_, symObjAddr: 0x3D38, symBinAddr: 0x100004D20, symSize: 0x3C }
  - { offsetInCU: 0x10098, offset: 0x10098, size: 0x8, addend: 0x0, symName: __ZNSt3__117__compressed_pairIPiNS_9allocatorIiEEEC2B8ue170006IDnS3_EEOT_OT0_, symObjAddr: 0x3D74, symBinAddr: 0x100004D5C, symSize: 0x44 }
  - { offsetInCU: 0x100EF, offset: 0x100EF, size: 0x8, addend: 0x0, symName: __ZNSt3__122__compressed_pair_elemINS_9allocatorIiEELi1ELb1EEC2B8ue170006IS2_vEEOT_, symObjAddr: 0x3DB8, symBinAddr: 0x100004DA0, symSize: 0x18 }
  - { offsetInCU: 0x10135, offset: 0x10135, size: 0x8, addend: 0x0, symName: __ZNSt3__119__to_address_helperINS_16reverse_iteratorIPNS_6vectorIiNS_9allocatorIiEEEEEEvE6__callB8ue170006ERKS7_, symObjAddr: 0x3DD0, symBinAddr: 0x100004DB8, symSize: 0x38 }
  - { offsetInCU: 0x10158, offset: 0x10158, size: 0x8, addend: 0x0, symName: __ZNKSt3__116reverse_iteratorIPNS_6vectorIiNS_9allocatorIiEEEEEptB8ue170006Ev, symObjAddr: 0x3E08, symBinAddr: 0x100004DF0, symSize: 0x24 }
  - { offsetInCU: 0x1017D, offset: 0x1017D, size: 0x8, addend: 0x0, symName: __ZNSt3__128__exception_guard_exceptionsINS_29_AllocatorDestroyRangeReverseINS_9allocatorINS_6vectorIiNS2_IiEEEEEENS_16reverse_iteratorIPS5_EEEEED2B8ue170006Ev, symObjAddr: 0x3E2C, symBinAddr: 0x100004E14, symSize: 0x50 }
  - { offsetInCU: 0x101A6, offset: 0x101A6, size: 0x8, addend: 0x0, symName: __ZNKSt3__129_AllocatorDestroyRangeReverseINS_9allocatorINS_6vectorIiNS1_IiEEEEEENS_16reverse_iteratorIPS4_EEEclB8ue170006Ev, symObjAddr: 0x3E7C, symBinAddr: 0x100004E64, symSize: 0xB4 }
  - { offsetInCU: 0x101CC, offset: 0x101CC, size: 0x8, addend: 0x0, symName: __ZNSt3__116reverse_iteratorINS0_IPNS_6vectorIiNS_9allocatorIiEEEEEEEC1B8ue170006ES6_, symObjAddr: 0x3FA0, symBinAddr: 0x100004F88, symSize: 0x3C }
  - { offsetInCU: 0x10203, offset: 0x10203, size: 0x8, addend: 0x0, symName: __ZNSt3__116allocator_traitsINS_9allocatorINS_6vectorIiNS1_IiEEEEEEE7destroyB8ue170006IS4_vEEvRS5_PT_, symObjAddr: 0x403C, symBinAddr: 0x100005024, symSize: 0x2C }
  - { offsetInCU: 0x10240, offset: 0x10240, size: 0x8, addend: 0x0, symName: __ZNSt3__116reverse_iteratorINS0_IPNS_6vectorIiNS_9allocatorIiEEEEEEEppB8ue170006Ev, symObjAddr: 0x408C, symBinAddr: 0x100005074, symSize: 0x30 }
  - { offsetInCU: 0x10265, offset: 0x10265, size: 0x8, addend: 0x0, symName: __ZNKSt3__116reverse_iteratorINS0_IPNS_6vectorIiNS_9allocatorIiEEEEEEE4baseB8ue170006Ev, symObjAddr: 0x40BC, symBinAddr: 0x1000050A4, symSize: 0x24 }
  - { offsetInCU: 0x1028A, offset: 0x1028A, size: 0x8, addend: 0x0, symName: __ZNSt3__19allocatorINS_6vectorIiNS0_IiEEEEE7destroyB8ue170006EPS3_, symObjAddr: 0x40E0, symBinAddr: 0x1000050C8, symSize: 0x28 }
  - { offsetInCU: 0x102C2, offset: 0x102C2, size: 0x8, addend: 0x0, symName: __ZNSt3__119__to_address_helperINS_16reverse_iteratorINS1_IPNS_6vectorIiNS_9allocatorIiEEEEEEEEvE6__callB8ue170006ERKS8_, symObjAddr: 0x4108, symBinAddr: 0x1000050F0, symSize: 0x38 }
  - { offsetInCU: 0x102E5, offset: 0x102E5, size: 0x8, addend: 0x0, symName: __ZNKSt3__116reverse_iteratorINS0_IPNS_6vectorIiNS_9allocatorIiEEEEEEEptB8ue170006Ev, symObjAddr: 0x4140, symBinAddr: 0x100005128, symSize: 0x24 }
  - { offsetInCU: 0x1030A, offset: 0x1030A, size: 0x8, addend: 0x0, symName: __ZNKSt3__116reverse_iteratorINS0_IPNS_6vectorIiNS_9allocatorIiEEEEEEEdeB8ue170006Ev, symObjAddr: 0x4164, symBinAddr: 0x10000514C, symSize: 0x34 }
  - { offsetInCU: 0x1033D, offset: 0x1033D, size: 0x8, addend: 0x0, symName: __ZNSt3__116reverse_iteratorIPNS_6vectorIiNS_9allocatorIiEEEEEmmB8ue170006Ev, symObjAddr: 0x4198, symBinAddr: 0x100005180, symSize: 0x20 }
  - { offsetInCU: 0x10362, offset: 0x10362, size: 0x8, addend: 0x0, symName: __ZNSt3__116reverse_iteratorINS0_IPNS_6vectorIiNS_9allocatorIiEEEEEEEC2B8ue170006ES6_, symObjAddr: 0x41B8, symBinAddr: 0x1000051A0, symSize: 0x2C }
  - { offsetInCU: 0x10399, offset: 0x10399, size: 0x8, addend: 0x0, symName: __ZNSt3__116reverse_iteratorIPNS_6vectorIiNS_9allocatorIiEEEEEC2B8ue170006ES5_, symObjAddr: 0x41E4, symBinAddr: 0x1000051CC, symSize: 0x28 }
  - { offsetInCU: 0x103D0, offset: 0x103D0, size: 0x8, addend: 0x0, symName: __ZNSt3__114__split_bufferINS_6vectorIiNS_9allocatorIiEEEERNS2_IS4_EEED2Ev, symObjAddr: 0x420C, symBinAddr: 0x1000051F4, symSize: 0x8C }
  - { offsetInCU: 0x103FB, offset: 0x103FB, size: 0x8, addend: 0x0, symName: __ZNSt3__114__split_bufferINS_6vectorIiNS_9allocatorIiEEEERNS2_IS4_EEE5clearB8ue170006Ev, symObjAddr: 0x4298, symBinAddr: 0x100005280, symSize: 0x28 }
  - { offsetInCU: 0x10420, offset: 0x10420, size: 0x8, addend: 0x0, symName: __ZNSt3__116allocator_traitsINS_9allocatorINS_6vectorIiNS1_IiEEEEEEE10deallocateB8ue170006ERS5_PS4_m, symObjAddr: 0x42C0, symBinAddr: 0x1000052A8, symSize: 0x34 }
  - { offsetInCU: 0x10462, offset: 0x10462, size: 0x8, addend: 0x0, symName: __ZNKSt3__114__split_bufferINS_6vectorIiNS_9allocatorIiEEEERNS2_IS4_EEE8capacityB8ue170006Ev, symObjAddr: 0x42F4, symBinAddr: 0x1000052DC, symSize: 0x40 }
  - { offsetInCU: 0x10487, offset: 0x10487, size: 0x8, addend: 0x0, symName: __ZNSt3__114__split_bufferINS_6vectorIiNS_9allocatorIiEEEERNS2_IS4_EEE17__destruct_at_endB8ue170006EPS4_, symObjAddr: 0x4334, symBinAddr: 0x10000531C, symSize: 0x2C }
  - { offsetInCU: 0x104B9, offset: 0x104B9, size: 0x8, addend: 0x0, symName: __ZNSt3__114__split_bufferINS_6vectorIiNS_9allocatorIiEEEERNS2_IS4_EEE17__destruct_at_endB8ue170006EPS4_NS_17integral_constantIbLb0EEE, symObjAddr: 0x4360, symBinAddr: 0x100005348, symSize: 0x80 }
  - { offsetInCU: 0x104F9, offset: 0x104F9, size: 0x8, addend: 0x0, symName: __ZNSt3__19allocatorINS_6vectorIiNS0_IiEEEEE10deallocateB8ue170006EPS3_m, symObjAddr: 0x43E0, symBinAddr: 0x1000053C8, symSize: 0x44 }
  - { offsetInCU: 0x1053A, offset: 0x1053A, size: 0x8, addend: 0x0, symName: __ZNKSt3__114__split_bufferINS_6vectorIiNS_9allocatorIiEEEERNS2_IS4_EEE9__end_capB8ue170006Ev, symObjAddr: 0x4424, symBinAddr: 0x10000540C, symSize: 0x28 }
  - { offsetInCU: 0x1055F, offset: 0x1055F, size: 0x8, addend: 0x0, symName: __ZNKSt3__117__compressed_pairIPNS_6vectorIiNS_9allocatorIiEEEERNS2_IS4_EEE5firstB8ue170006Ev, symObjAddr: 0x444C, symBinAddr: 0x100005434, symSize: 0x24 }
  - { offsetInCU: 0x10584, offset: 0x10584, size: 0x8, addend: 0x0, symName: __ZNSt3__118__unwrap_iter_implINS_11__wrap_iterIPiEELb1EE8__rewrapB8ue170006ES3_S2_, symObjAddr: 0x4544, symBinAddr: 0x10000552C, symSize: 0x5C }
  - { offsetInCU: 0x105B5, offset: 0x105B5, size: 0x8, addend: 0x0, symName: __ZNKSt3__111__wrap_iterIPiEplB8ue170006El, symObjAddr: 0x45A0, symBinAddr: 0x100005588, symSize: 0x3C }
  - { offsetInCU: 0x105F6, offset: 0x105F6, size: 0x8, addend: 0x0, symName: __ZNSt3__111__wrap_iterIPiEpLB8ue170006El, symObjAddr: 0x45DC, symBinAddr: 0x1000055C4, symSize: 0x28 }
  - { offsetInCU: 0x10633, offset: 0x10633, size: 0x8, addend: 0x0, symName: __ZNKSt3__110__identityclB8ue170006IRiEEOT_S4_, symObjAddr: 0x4630, symBinAddr: 0x100005618, symSize: 0x18 }
  - { offsetInCU: 0x1066F, offset: 0x1066F, size: 0x8, addend: 0x0, symName: __ZNKSt3__16vectorIiNS_9allocatorIiEEE6cbeginB8ue170006Ev, symObjAddr: 0x4690, symBinAddr: 0x100005678, symSize: 0x2C }
  - { offsetInCU: 0x10694, offset: 0x10694, size: 0x8, addend: 0x0, symName: __ZNSt3__16vectorIiNS_9allocatorIiEEE17__destruct_at_endB8ue170006EPi, symObjAddr: 0x46BC, symBinAddr: 0x1000056A4, symSize: 0x4C }
  - { offsetInCU: 0x106D7, offset: 0x106D7, size: 0x8, addend: 0x0, symName: __ZNSt3__16vectorIiNS_9allocatorIiEEE11__make_iterB8ue170006EPi, symObjAddr: 0x4748, symBinAddr: 0x100005730, symSize: 0x30 }
  - { offsetInCU: 0x1070B, offset: 0x1070B, size: 0x8, addend: 0x0, symName: __ZNKSt3__111__wrap_iterIPKiE4baseB8ue170006Ev, symObjAddr: 0x4778, symBinAddr: 0x100005760, symSize: 0x18 }
  - { offsetInCU: 0x1072F, offset: 0x1072F, size: 0x8, addend: 0x0, symName: __ZNKSt3__16vectorIiNS_9allocatorIiEEE5beginB8ue170006Ev, symObjAddr: 0x4790, symBinAddr: 0x100005778, symSize: 0x30 }
  - { offsetInCU: 0x10756, offset: 0x10756, size: 0x8, addend: 0x0, symName: __ZNKSt3__16vectorIiNS_9allocatorIiEEE11__make_iterB8ue170006EPKi, symObjAddr: 0x47C0, symBinAddr: 0x1000057A8, symSize: 0x30 }
  - { offsetInCU: 0x1078A, offset: 0x1078A, size: 0x8, addend: 0x0, symName: __ZNSt3__111__wrap_iterIPKiEC1B8ue170006ES2_, symObjAddr: 0x47F0, symBinAddr: 0x1000057D8, symSize: 0x34 }
  - { offsetInCU: 0x107C1, offset: 0x107C1, size: 0x8, addend: 0x0, symName: __ZNSt3__111__wrap_iterIPKiEC2B8ue170006ES2_, symObjAddr: 0x4824, symBinAddr: 0x10000580C, symSize: 0x20 }
  - { offsetInCU: 0x107F8, offset: 0x107F8, size: 0x8, addend: 0x0, symName: __ZNSt3__16vectorIiNS_9allocatorIiEEE22__base_destruct_at_endB8ue170006EPi, symObjAddr: 0x4844, symBinAddr: 0x10000582C, symSize: 0x8C }
  - { offsetInCU: 0x1083B, offset: 0x1083B, size: 0x8, addend: 0x0, symName: __ZNKSt3__16vectorIiNS_9allocatorIiEEE17__annotate_shrinkB8ue170006Em, symObjAddr: 0x48D0, symBinAddr: 0x1000058B8, symSize: 0xB4 }
  - { offsetInCU: 0x10892, offset: 0x10892, size: 0x8, addend: 0x0, symName: __ZNKSt3__114__move_trivialclB8ue170006IiiLi0EEENS_4pairIPT_PT0_EES4_S4_S6_, symObjAddr: 0x4B20, symBinAddr: 0x100005B08, symSize: 0x48 }
  - { offsetInCU: 0x108FE, offset: 0x108FE, size: 0x8, addend: 0x0, symName: __ZNSt3__14pairIPiS1_EC1B8ue170006IRS1_S1_LPv0EEEOT_OT0_, symObjAddr: 0x4D48, symBinAddr: 0x100005D30, symSize: 0x3C }
  - { offsetInCU: 0x1095B, offset: 0x1095B, size: 0x8, addend: 0x0, symName: __ZNSt3__14pairIPiS1_EC2B8ue170006IRS1_S1_LPv0EEEOT_OT0_, symObjAddr: 0x4D84, symBinAddr: 0x100005D6C, symSize: 0x34 }
  - { offsetInCU: 0x109B8, offset: 0x109B8, size: 0x8, addend: 0x0, symName: __ZNSt3__118__unwrap_iter_implIPiLb1EE8__unwrapB8ue170006ES1_, symObjAddr: 0x4DB8, symBinAddr: 0x100005DA0, symSize: 0x24 }
  - { offsetInCU: 0x109DB, offset: 0x109DB, size: 0x8, addend: 0x0, symName: __ZNSt3__14pairIPiS1_EC1B8ue170006IS1_S1_LPv0EEEOT_OT0_, symObjAddr: 0x4DDC, symBinAddr: 0x100005DC4, symSize: 0x3C }
  - { offsetInCU: 0x10A38, offset: 0x10A38, size: 0x8, addend: 0x0, symName: __ZNSt3__14pairIPiS1_EC2B8ue170006IS1_S1_LPv0EEEOT_OT0_, symObjAddr: 0x4E18, symBinAddr: 0x100005E00, symSize: 0x34 }
  - { offsetInCU: 0x10A95, offset: 0x10A95, size: 0x8, addend: 0x0, symName: __ZNSt3__118__unwrap_iter_implIPiLb1EE8__rewrapB8ue170006ES1_S1_, symObjAddr: 0x4E4C, symBinAddr: 0x100005E34, symSize: 0x50 }
  - { offsetInCU: 0x10AC6, offset: 0x10AC6, size: 0x8, addend: 0x0, symName: __ZNSt3__111__wrap_iterIPiEC1B8ue170006ES1_, symObjAddr: 0x4E9C, symBinAddr: 0x100005E84, symSize: 0x34 }
  - { offsetInCU: 0x10AFD, offset: 0x10AFD, size: 0x8, addend: 0x0, symName: __ZNSt3__111__wrap_iterIPiEC2B8ue170006ES1_, symObjAddr: 0x4ED0, symBinAddr: 0x100005EB8, symSize: 0x20 }
  - { offsetInCU: 0x10B34, offset: 0x10B34, size: 0x8, addend: 0x0, symName: __ZNSt3__111__wrap_iterIPKiEC2B8ue170006IPiEERKNS0_IT_EEPNS_9enable_ifIXsr14is_convertibleIS6_S2_EE5valueEvE4typeE, symObjAddr: 0x4EF0, symBinAddr: 0x100005ED8, symSize: 0x40 }
  - { offsetInCU: 0x10B7F, offset: 0x10B7F, size: 0x8, addend: 0x0, symName: __ZNKSt3__111__wrap_iterIPNS_6vectorIiNS_9allocatorIiEEEEE4baseB8ue170006Ev, symObjAddr: 0x4F78, symBinAddr: 0x100005F60, symSize: 0x18 }
  - { offsetInCU: 0x10BA4, offset: 0x10BA4, size: 0x8, addend: 0x0, symName: __ZNSt3__16vectorINS0_IiNS_9allocatorIiEEEENS1_IS3_EEED2B8ue170006Ev, symObjAddr: 0x4FD8, symBinAddr: 0x100005FC0, symSize: 0x44 }
  - { offsetInCU: 0x10BCD, offset: 0x10BCD, size: 0x8, addend: 0x0, symName: __ZNSt3__16vectorINS0_IiNS_9allocatorIiEEEENS1_IS3_EEE16__destroy_vectorC1B8ue170006ERS5_, symObjAddr: 0x501C, symBinAddr: 0x100006004, symSize: 0x34 }
  - { offsetInCU: 0x10C05, offset: 0x10C05, size: 0x8, addend: 0x0, symName: __ZNSt3__16vectorINS0_IiNS_9allocatorIiEEEENS1_IS3_EEE16__destroy_vectorclB8ue170006Ev, symObjAddr: 0x5050, symBinAddr: 0x100006038, symSize: 0x90 }
  - { offsetInCU: 0x10C2A, offset: 0x10C2A, size: 0x8, addend: 0x0, symName: __ZNSt3__16vectorINS0_IiNS_9allocatorIiEEEENS1_IS3_EEE16__destroy_vectorC2B8ue170006ERS5_, symObjAddr: 0x50E0, symBinAddr: 0x1000060C8, symSize: 0x20 }
  - { offsetInCU: 0x10C62, offset: 0x10C62, size: 0x8, addend: 0x0, symName: __ZNSt3__16vectorINS0_IiNS_9allocatorIiEEEENS1_IS3_EEE7__clearB8ue170006Ev, symObjAddr: 0x5100, symBinAddr: 0x1000060E8, symSize: 0x28 }
  - { offsetInCU: 0x10C87, offset: 0x10C87, size: 0x8, addend: 0x0, symName: __ZNSt3__16vectorINS0_IiNS_9allocatorIiEEEENS1_IS3_EEE22__base_destruct_at_endB8ue170006EPS3_, symObjAddr: 0x5128, symBinAddr: 0x100006110, symSize: 0x8C }
  - { offsetInCU: 0x10CCA, offset: 0x10CCA, size: 0x8, addend: 0x0, symName: __ZNSt3__16vectorIiNS_9allocatorIiEEED2B8ue170006Ev, symObjAddr: 0x51B4, symBinAddr: 0x10000619C, symSize: 0x44 }
  - { offsetInCU: 0x10CF3, offset: 0x10CF3, size: 0x8, addend: 0x0, symName: __ZNSt3__16vectorIiNS_9allocatorIiEEE16__destroy_vectorC1B8ue170006ERS3_, symObjAddr: 0x51F8, symBinAddr: 0x1000061E0, symSize: 0x34 }
  - { offsetInCU: 0x10D2B, offset: 0x10D2B, size: 0x8, addend: 0x0, symName: __ZNSt3__16vectorIiNS_9allocatorIiEEE16__destroy_vectorclB8ue170006Ev, symObjAddr: 0x522C, symBinAddr: 0x100006214, symSize: 0x90 }
  - { offsetInCU: 0x10D50, offset: 0x10D50, size: 0x8, addend: 0x0, symName: __ZNSt3__16vectorIiNS_9allocatorIiEEE16__destroy_vectorC2B8ue170006ERS3_, symObjAddr: 0x52BC, symBinAddr: 0x1000062A4, symSize: 0x20 }
  - { offsetInCU: 0x10D88, offset: 0x10D88, size: 0x8, addend: 0x0, symName: __ZNSt3__16vectorIiNS_9allocatorIiEEE7__clearB8ue170006Ev, symObjAddr: 0x52DC, symBinAddr: 0x1000062C4, symSize: 0x28 }
  - { offsetInCU: 0x10DAD, offset: 0x10DAD, size: 0x8, addend: 0x0, symName: __ZNSt3__16vectorIiNS_9allocatorIiEEEC2Em, symObjAddr: 0x5304, symBinAddr: 0x1000062EC, symSize: 0xD4 }
  - { offsetInCU: 0x10DFC, offset: 0x10DFC, size: 0x8, addend: 0x0, symName: __ZNSt3__16vectorIiNS_9allocatorIiEEE11__vallocateB8ue170006Em, symObjAddr: 0x5418, symBinAddr: 0x100006400, symSize: 0xAC }
  - { offsetInCU: 0x10E3E, offset: 0x10E3E, size: 0x8, addend: 0x0, symName: __ZNSt3__16vectorIiNS_9allocatorIiEEE18__construct_at_endEm, symObjAddr: 0x54C4, symBinAddr: 0x1000064AC, symSize: 0xC8 }
  - { offsetInCU: 0x10EB0, offset: 0x10EB0, size: 0x8, addend: 0x0, symName: __ZNSt3__128__exception_guard_exceptionsINS_6vectorIiNS_9allocatorIiEEE16__destroy_vectorEE10__completeB8ue170006Ev, symObjAddr: 0x558C, symBinAddr: 0x100006574, symSize: 0x1C }
  - { offsetInCU: 0x10ED5, offset: 0x10ED5, size: 0x8, addend: 0x0, symName: __ZNSt3__128__exception_guard_exceptionsINS_6vectorIiNS_9allocatorIiEEE16__destroy_vectorEED1B8ue170006Ev, symObjAddr: 0x55A8, symBinAddr: 0x100006590, symSize: 0x2C }
  - { offsetInCU: 0x10EFE, offset: 0x10EFE, size: 0x8, addend: 0x0, symName: __ZNSt3__128__exception_guard_exceptionsINS_6vectorIiNS_9allocatorIiEEE16__destroy_vectorEEC1B8ue170006ES5_, symObjAddr: 0x55D4, symBinAddr: 0x1000065BC, symSize: 0x34 }
  - { offsetInCU: 0x10F35, offset: 0x10F35, size: 0x8, addend: 0x0, symName: __ZNSt3__128__exception_guard_exceptionsINS_6vectorIiNS_9allocatorIiEEE16__destroy_vectorEEC2B8ue170006ES5_, symObjAddr: 0x5608, symBinAddr: 0x1000065F0, symSize: 0x24 }
  - { offsetInCU: 0x10F6C, offset: 0x10F6C, size: 0x8, addend: 0x0, symName: __ZNSt3__116allocator_traitsINS_9allocatorIiEEE9constructB8ue170006IiJEvEEvRS2_PT_DpOT0_, symObjAddr: 0x562C, symBinAddr: 0x100006614, symSize: 0x2C }
  - { offsetInCU: 0x10FAE, offset: 0x10FAE, size: 0x8, addend: 0x0, symName: __ZNSt3__19allocatorIiE9constructB8ue170006IiJEEEvPT_DpOT0_, symObjAddr: 0x5658, symBinAddr: 0x100006640, symSize: 0x1C }
  - { offsetInCU: 0x10FEF, offset: 0x10FEF, size: 0x8, addend: 0x0, symName: __ZNSt3__128__exception_guard_exceptionsINS_6vectorIiNS_9allocatorIiEEE16__destroy_vectorEED2B8ue170006Ev, symObjAddr: 0x5674, symBinAddr: 0x10000665C, symSize: 0x48 }
  - { offsetInCU: 0x11018, offset: 0x11018, size: 0x8, addend: 0x0, symName: __ZNSt3__16vectorINS0_IiNS_9allocatorIiEEEENS1_IS3_EEE11__make_iterB8ue170006EPS3_, symObjAddr: 0x56BC, symBinAddr: 0x1000066A4, symSize: 0x30 }
  - { offsetInCU: 0x1104C, offset: 0x1104C, size: 0x8, addend: 0x0, symName: __ZNSt3__111__wrap_iterIPNS_6vectorIiNS_9allocatorIiEEEEEC1B8ue170006ES5_, symObjAddr: 0x56EC, symBinAddr: 0x1000066D4, symSize: 0x34 }
  - { offsetInCU: 0x11083, offset: 0x11083, size: 0x8, addend: 0x0, symName: __ZNSt3__111__wrap_iterIPNS_6vectorIiNS_9allocatorIiEEEEEC2B8ue170006ES5_, symObjAddr: 0x5720, symBinAddr: 0x100006708, symSize: 0x20 }
  - { offsetInCU: 0x110BA, offset: 0x110BA, size: 0x8, addend: 0x0, symName: __ZNSt3__16vectorIiNS_9allocatorIiEEEC2ERKS3_, symObjAddr: 0x5740, symBinAddr: 0x100006728, symSize: 0x94 }
  - { offsetInCU: 0x110F4, offset: 0x110F4, size: 0x8, addend: 0x0, symName: __ZNSt3__116allocator_traitsINS_9allocatorIiEEE37select_on_container_copy_constructionB8ue170006IS2_vvEES2_RKS2_, symObjAddr: 0x57D4, symBinAddr: 0x1000067BC, symSize: 0x10 }
  - { offsetInCU: 0x11123, offset: 0x11123, size: 0x8, addend: 0x0, symName: __ZNSt3__16vectorIiNS_9allocatorIiEEE16__init_with_sizeB8ue170006IPiS5_EEvT_T0_m, symObjAddr: 0x57E4, symBinAddr: 0x1000067CC, symSize: 0xB8 }
  - { offsetInCU: 0x11195, offset: 0x11195, size: 0x8, addend: 0x0, symName: __ZNSt3__16vectorIiNS_9allocatorIiEEE18__construct_at_endIPiS5_EEvT_T0_m, symObjAddr: 0x589C, symBinAddr: 0x100006884, symSize: 0x8C }
  - { offsetInCU: 0x11214, offset: 0x11214, size: 0x8, addend: 0x0, symName: __ZNKSt3__114__copy_trivialclB8ue170006IiiLi0EEENS_4pairIPT_PT0_EES4_S4_S6_, symObjAddr: 0x5B5C, symBinAddr: 0x100006B44, symSize: 0x48 }
  - { offsetInCU: 0x11299, offset: 0x11299, size: 0x8, addend: 0x0, symName: __ZNKSt3__113basic_ostreamIcNS_11char_traitsIcEEE6sentrycvbB8ue170006Ev, symObjAddr: 0x5D90, symBinAddr: 0x100006D78, symSize: 0x1C }
  - { offsetInCU: 0x112BE, offset: 0x112BE, size: 0x8, addend: 0x0, symName: __ZNSt3__119ostreambuf_iteratorIcNS_11char_traitsIcEEEC1B8ue170006ERNS_13basic_ostreamIcS2_EE, symObjAddr: 0x5FEC, symBinAddr: 0x100006FD4, symSize: 0x34 }
  - { offsetInCU: 0x112F5, offset: 0x112F5, size: 0x8, addend: 0x0, symName: __ZNKSt3__18ios_base5flagsB8ue170006Ev, symObjAddr: 0x6020, symBinAddr: 0x100007008, symSize: 0x18 }
  - { offsetInCU: 0x1131B, offset: 0x1131B, size: 0x8, addend: 0x0, symName: __ZNKSt3__19basic_iosIcNS_11char_traitsIcEEE4fillB8ue170006Ev, symObjAddr: 0x6038, symBinAddr: 0x100007020, symSize: 0x64 }
  - { offsetInCU: 0x11342, offset: 0x11342, size: 0x8, addend: 0x0, symName: __ZNKSt3__119ostreambuf_iteratorIcNS_11char_traitsIcEEE6failedB8ue170006Ev, symObjAddr: 0x609C, symBinAddr: 0x100007084, symSize: 0x24 }
  - { offsetInCU: 0x11367, offset: 0x11367, size: 0x8, addend: 0x0, symName: __ZNSt3__19basic_iosIcNS_11char_traitsIcEEE8setstateB8ue170006Ej, symObjAddr: 0x60C0, symBinAddr: 0x1000070A8, symSize: 0x2C }
  - { offsetInCU: 0x1139B, offset: 0x1139B, size: 0x8, addend: 0x0, symName: __ZNKSt3__18ios_base5widthB8ue170006Ev, symObjAddr: 0x60EC, symBinAddr: 0x1000070D4, symSize: 0x18 }
  - { offsetInCU: 0x113C2, offset: 0x113C2, size: 0x8, addend: 0x0, symName: __ZNSt3__115basic_streambufIcNS_11char_traitsIcEEE5sputnB8ue170006EPKcl, symObjAddr: 0x6104, symBinAddr: 0x1000070EC, symSize: 0x3C }
  - { offsetInCU: 0x11403, offset: 0x11403, size: 0x8, addend: 0x0, symName: __ZNSt3__112basic_stringIcNS_11char_traitsIcEENS_9allocatorIcEEEC1B8ue170006Emc, symObjAddr: 0x6140, symBinAddr: 0x100007128, symSize: 0x3C }
  - { offsetInCU: 0x1144A, offset: 0x1144A, size: 0x8, addend: 0x0, symName: __ZNKSt3__112basic_stringIcNS_11char_traitsIcEENS_9allocatorIcEEE4dataB8ue170006Ev, symObjAddr: 0x617C, symBinAddr: 0x100007164, symSize: 0x28 }
  - { offsetInCU: 0x1146F, offset: 0x1146F, size: 0x8, addend: 0x0, symName: __ZNSt3__18ios_base5widthB8ue170006El, symObjAddr: 0x61A4, symBinAddr: 0x10000718C, symSize: 0x2C }
  - { offsetInCU: 0x114B4, offset: 0x114B4, size: 0x8, addend: 0x0, symName: __ZNSt3__112basic_stringIcNS_11char_traitsIcEENS_9allocatorIcEEEC2B8ue170006Emc, symObjAddr: 0x61D0, symBinAddr: 0x1000071B8, symSize: 0x4C }
  - { offsetInCU: 0x114FB, offset: 0x114FB, size: 0x8, addend: 0x0, symName: __ZNSt3__117__compressed_pairINS_12basic_stringIcNS_11char_traitsIcEENS_9allocatorIcEEE5__repES5_EC1B8ue170006INS_18__default_init_tagESA_EEOT_OT0_, symObjAddr: 0x621C, symBinAddr: 0x100007204, symSize: 0x3C }
  - { offsetInCU: 0x11552, offset: 0x11552, size: 0x8, addend: 0x0, symName: __ZNSt3__117__compressed_pairINS_12basic_stringIcNS_11char_traitsIcEENS_9allocatorIcEEE5__repES5_EC2B8ue170006INS_18__default_init_tagESA_EEOT_OT0_, symObjAddr: 0x6258, symBinAddr: 0x100007240, symSize: 0x3C }
  - { offsetInCU: 0x115A9, offset: 0x115A9, size: 0x8, addend: 0x0, symName: __ZNSt3__122__compressed_pair_elemINS_12basic_stringIcNS_11char_traitsIcEENS_9allocatorIcEEE5__repELi0ELb0EEC2B8ue170006ENS_18__default_init_tagE, symObjAddr: 0x6294, symBinAddr: 0x10000727C, symSize: 0x14 }
  - { offsetInCU: 0x115DD, offset: 0x115DD, size: 0x8, addend: 0x0, symName: __ZNSt3__122__compressed_pair_elemINS_9allocatorIcEELi1ELb1EEC2B8ue170006ENS_18__default_init_tagE, symObjAddr: 0x62A8, symBinAddr: 0x100007290, symSize: 0x2C }
  - { offsetInCU: 0x11611, offset: 0x11611, size: 0x8, addend: 0x0, symName: __ZNSt3__19allocatorIcEC2B8ue170006Ev, symObjAddr: 0x62D4, symBinAddr: 0x1000072BC, symSize: 0x2C }
  - { offsetInCU: 0x1163A, offset: 0x1163A, size: 0x8, addend: 0x0, symName: __ZNSt3__116__non_trivial_ifILb1ENS_9allocatorIcEEEC2B8ue170006Ev, symObjAddr: 0x6300, symBinAddr: 0x1000072E8, symSize: 0x14 }
  - { offsetInCU: 0x11663, offset: 0x11663, size: 0x8, addend: 0x0, symName: __ZNKSt3__112basic_stringIcNS_11char_traitsIcEENS_9allocatorIcEEE13__get_pointerB8ue170006Ev, symObjAddr: 0x6328, symBinAddr: 0x100007310, symSize: 0x54 }
  - { offsetInCU: 0x11688, offset: 0x11688, size: 0x8, addend: 0x0, symName: __ZNKSt3__112basic_stringIcNS_11char_traitsIcEENS_9allocatorIcEEE9__is_longB8ue170006Ev, symObjAddr: 0x637C, symBinAddr: 0x100007364, symSize: 0x38 }
  - { offsetInCU: 0x116AD, offset: 0x116AD, size: 0x8, addend: 0x0, symName: __ZNKSt3__112basic_stringIcNS_11char_traitsIcEENS_9allocatorIcEEE18__get_long_pointerB8ue170006Ev, symObjAddr: 0x63B4, symBinAddr: 0x10000739C, symSize: 0x28 }
  - { offsetInCU: 0x116D2, offset: 0x116D2, size: 0x8, addend: 0x0, symName: __ZNKSt3__112basic_stringIcNS_11char_traitsIcEENS_9allocatorIcEEE19__get_short_pointerB8ue170006Ev, symObjAddr: 0x63DC, symBinAddr: 0x1000073C4, symSize: 0x28 }
  - { offsetInCU: 0x116F7, offset: 0x116F7, size: 0x8, addend: 0x0, symName: __ZNKSt3__117__compressed_pairINS_12basic_stringIcNS_11char_traitsIcEENS_9allocatorIcEEE5__repES5_E5firstB8ue170006Ev, symObjAddr: 0x6404, symBinAddr: 0x1000073EC, symSize: 0x24 }
  - { offsetInCU: 0x1171C, offset: 0x1171C, size: 0x8, addend: 0x0, symName: __ZNKSt3__122__compressed_pair_elemINS_12basic_stringIcNS_11char_traitsIcEENS_9allocatorIcEEE5__repELi0ELb0EE5__getB8ue170006Ev, symObjAddr: 0x6428, symBinAddr: 0x100007410, symSize: 0x14 }
  - { offsetInCU: 0x11741, offset: 0x11741, size: 0x8, addend: 0x0, symName: __ZNSt3__114pointer_traitsIPKcE10pointer_toB8ue170006ERS1_, symObjAddr: 0x643C, symBinAddr: 0x100007424, symSize: 0x14 }
  - { offsetInCU: 0x11764, offset: 0x11764, size: 0x8, addend: 0x0, symName: __ZNSt3__119ostreambuf_iteratorIcNS_11char_traitsIcEEEC2B8ue170006ERNS_13basic_ostreamIcS2_EE, symObjAddr: 0x6450, symBinAddr: 0x100007438, symSize: 0x54 }
  - { offsetInCU: 0x1179A, offset: 0x1179A, size: 0x8, addend: 0x0, symName: __ZNKSt3__19basic_iosIcNS_11char_traitsIcEEE5rdbufB8ue170006Ev, symObjAddr: 0x64A4, symBinAddr: 0x10000748C, symSize: 0x24 }
  - { offsetInCU: 0x117C1, offset: 0x117C1, size: 0x8, addend: 0x0, symName: __ZNKSt3__18ios_base5rdbufB8ue170006Ev, symObjAddr: 0x64C8, symBinAddr: 0x1000074B0, symSize: 0x18 }
  - { offsetInCU: 0x117E6, offset: 0x117E6, size: 0x8, addend: 0x0, symName: __ZNSt3__111char_traitsIcE11eq_int_typeB8ue170006Eii, symObjAddr: 0x64E0, symBinAddr: 0x1000074C8, symSize: 0x28 }
  - { offsetInCU: 0x11819, offset: 0x11819, size: 0x8, addend: 0x0, symName: __ZNSt3__111char_traitsIcE3eofB8ue170006Ev, symObjAddr: 0x6508, symBinAddr: 0x1000074F0, symSize: 0x8 }
  - { offsetInCU: 0x1182C, offset: 0x1182C, size: 0x8, addend: 0x0, symName: __ZNKSt3__19basic_iosIcNS_11char_traitsIcEEE5widenB8ue170006Ec, symObjAddr: 0x6510, symBinAddr: 0x1000074F8, symSize: 0x84 }
  - { offsetInCU: 0x11894, offset: 0x11894, size: 0x8, addend: 0x0, symName: __ZNKSt3__15ctypeIcE5widenB8ue170006Ec, symObjAddr: 0x65C0, symBinAddr: 0x1000075A8, symSize: 0x38 }
  - { offsetInCU: 0x118C7, offset: 0x118C7, size: 0x8, addend: 0x0, symName: __ZNSt3__18ios_base8setstateB8ue170006Ej, symObjAddr: 0x65F8, symBinAddr: 0x1000075E0, symSize: 0x34 }
...
